; ModuleID = '1ptrbfk6qw8plc59'
source_filename = "1ptrbfk6qw8plc59"
target datalayout = "e-m:e-p270:32:32-p271:32:32-p272:64:64-i64:64-f80:128-n8:16:32:64-S128"
target triple = "x86_64-unknown-linux-gnu"

%"std::thread::local::fast::Key<core::cell::Cell<(u64, u64)>>" = type { %"std::thread::local::lazy::LazyKeyInner<core::cell::Cell<(u64, u64)>>", i8, [7 x i8] }
%"std::thread::local::lazy::LazyKeyInner<core::cell::Cell<(u64, u64)>>" = type { %"core::cell::UnsafeCell<core::option::Option<core::cell::Cell<(u64, u64)>>>" }
%"core::cell::UnsafeCell<core::option::Option<core::cell::Cell<(u64, u64)>>>" = type { %"core::option::Option<core::cell::Cell<(u64, u64)>>" }
%"core::option::Option<core::cell::Cell<(u64, u64)>>" = type { i64, [2 x i64] }
%"core::sync::atomic::AtomicUsize" = type { i64 }
%"core::ptr::metadata::PtrRepr<[u8]>" = type { [2 x i64] }
%"[closure@std::thread::Builder::spawn_unchecked_<'_, '_, [closure@src/main.rs:18:19: 18:26], ()>::{closure#1}::{closure#0}]" = type { %"[closure@src/main.rs:18:19: 18:26]" }
%"[closure@src/main.rs:18:19: 18:26]" = type { %"alloc::string::String", ptr, %"alloc::string::String" }
%"alloc::string::String" = type { %"alloc::vec::Vec<u8>" }
%"alloc::vec::Vec<u8>" = type { { i64, ptr }, i64 }
%"[closure@std::collections::hash::map::RandomState::new::{closure#0}]" = type {}
%"core::option::Option<core::cell::Cell<(u64, u64)>>::Some" = type { [1 x i64], { i64, i64 } }
%"std::collections::hash::map::HashMap<alloc::string::String, alloc::string::String>" = type { %"hashbrown::map::HashMap<alloc::string::String, alloc::string::String, std::collections::hash::map::RandomState>" }
%"hashbrown::map::HashMap<alloc::string::String, alloc::string::String, std::collections::hash::map::RandomState>" = type { %"hashbrown::raw::RawTable<(alloc::string::String, alloc::string::String)>", { i64, i64 } }
%"hashbrown::raw::RawTable<(alloc::string::String, alloc::string::String)>" = type { %"core::marker::PhantomData<(alloc::string::String, alloc::string::String)>", %"hashbrown::raw::RawTableInner<alloc::alloc::Global>" }
%"core::marker::PhantomData<(alloc::string::String, alloc::string::String)>" = type {}
%"hashbrown::raw::RawTableInner<alloc::alloc::Global>" = type { %"alloc::alloc::Global", i64, i64, i64, ptr }
%"alloc::alloc::Global" = type {}
%"core::option::Option<alloc::string::String>" = type { [1 x i64], ptr, [1 x i64] }
%"core::result::Result<usize, std::io::error::Error>" = type { i64, [1 x i64] }
%"core::result::Result<usize, std::io::error::Error>::Ok" = type { [1 x i64], i64 }
%"core::result::Result<usize, std::io::error::Error>::Err" = type { [1 x i64], ptr }
%"core::fmt::Arguments<'_>" = type { { ptr, i64 }, { ptr, i64 }, { ptr, i64 } }
%"std::io::error::ErrorData<alloc::boxed::Box<std::io::error::Custom>>" = type { i8, [15 x i8] }
%"[closure@<std::io::error::repr_bitpacked::Repr as core::ops::drop::Drop>::drop::{closure#0}]" = type {}
%"core::ptr::metadata::PtrComponents<()>" = type { ptr, {} }
%"core::ptr::metadata::PtrRepr<()>" = type { [1 x i64] }
%"std::io::error::ErrorData<alloc::boxed::Box<std::io::error::Custom>>::Os" = type { [1 x i32], i32 }
%"std::io::error::ErrorData<alloc::boxed::Box<std::io::error::Custom>>::SimpleMessage" = type { [1 x i64], ptr }
%"std::io::error::ErrorData<alloc::boxed::Box<std::io::error::Custom>>::Custom" = type { [1 x i64], ptr }
%"std::io::error::ErrorData<alloc::boxed::Box<std::io::error::Custom>>::Simple" = type { [1 x i8], i8 }
%"std::io::error::ErrorData<&std::io::error::Custom>" = type { i8, [15 x i8] }
%"[closure@std::io::error::repr_bitpacked::Repr::data::{closure#0}]" = type {}
%"std::io::error::ErrorData<&std::io::error::Custom>::Os" = type { [1 x i32], i32 }
%"std::io::error::ErrorData<&std::io::error::Custom>::SimpleMessage" = type { [1 x i64], ptr }
%"std::io::error::ErrorData<&std::io::error::Custom>::Custom" = type { [1 x i64], ptr }
%"std::io::error::ErrorData<&std::io::error::Custom>::Simple" = type { [1 x i8], i8 }
%"core::fmt::UnsafeArg" = type { {} }
%"std::io::error::SimpleMessage" = type { { ptr, i64 }, i8, [7 x i8] }
%"std::io::error::Custom" = type { { ptr, ptr }, i8, [7 x i8] }
%"std::sync::mutex::Mutex<std::collections::hash::map::HashMap<alloc::string::String, alloc::string::String>>" = type { %"std::sys::unix::locks::futex_mutex::Mutex", %"std::sync::poison::Flag", [3 x i8], %"core::cell::UnsafeCell<std::collections::hash::map::HashMap<alloc::string::String, alloc::string::String>>" }
%"std::sys::unix::locks::futex_mutex::Mutex" = type { %"core::sync::atomic::AtomicU32" }
%"core::sync::atomic::AtomicU32" = type { i32 }
%"std::sync::poison::Flag" = type { %"core::sync::atomic::AtomicBool" }
%"core::sync::atomic::AtomicBool" = type { i8 }
%"core::cell::UnsafeCell<std::collections::hash::map::HashMap<alloc::string::String, alloc::string::String>>" = type { %"std::collections::hash::map::HashMap<alloc::string::String, alloc::string::String>" }
%"core::result::Result<std::sync::mutex::MutexGuard<'_, std::collections::hash::map::HashMap<alloc::string::String, alloc::string::String>>, std::sync::poison::PoisonError<std::sync::mutex::MutexGuard<'_, std::collections::hash::map::HashMap<alloc::string::String, alloc::string::String>>>>" = type { i64, [2 x i64] }
%"core::result::Result<std::sync::mutex::MutexGuard<'_, std::collections::hash::map::HashMap<alloc::string::String, alloc::string::String>>, std::sync::poison::PoisonError<std::sync::mutex::MutexGuard<'_, std::collections::hash::map::HashMap<alloc::string::String, alloc::string::String>>>>::Ok" = type { [1 x i64], { ptr, i8 } }
%"core::result::Result<std::sync::mutex::MutexGuard<'_, std::collections::hash::map::HashMap<alloc::string::String, alloc::string::String>>, std::sync::poison::PoisonError<std::sync::mutex::MutexGuard<'_, std::collections::hash::map::HashMap<alloc::string::String, alloc::string::String>>>>::Err" = type { [1 x i64], { ptr, i8 } }
%"core::panic::unwind_safe::AssertUnwindSafe<[closure@std::thread::Builder::spawn_unchecked_<'_, '_, [closure@src/main.rs:18:19: 18:26], ()>::{closure#1}::{closure#0}]>" = type { %"[closure@std::thread::Builder::spawn_unchecked_<'_, '_, [closure@src/main.rs:18:19: 18:26], ()>::{closure#1}::{closure#0}]" }
%"core::option::Option<core::result::Result<(), alloc::boxed::Box<dyn core::any::Any + core::marker::Send>>>" = type { i64, [2 x i64] }
%"std::thread::JoinInner<'_, ()>" = type { i64, ptr, ptr }
%"std::thread::Packet<'_, ()>" = type { %"core::marker::PhantomData<core::option::Option<&std::thread::scoped::ScopeData>>", ptr, %"core::cell::UnsafeCell<core::option::Option<core::result::Result<(), alloc::boxed::Box<dyn core::any::Any + core::marker::Send>>>>" }
%"core::marker::PhantomData<core::option::Option<&std::thread::scoped::ScopeData>>" = type {}
%"core::cell::UnsafeCell<core::option::Option<core::result::Result<(), alloc::boxed::Box<dyn core::any::Any + core::marker::Send>>>>" = type { %"core::option::Option<core::result::Result<(), alloc::boxed::Box<dyn core::any::Any + core::marker::Send>>>" }
%"core::option::Option<core::result::Result<(), alloc::boxed::Box<dyn core::any::Any + core::marker::Send>>>::Some" = type { [1 x i64], { ptr, ptr } }
%"core::result::Result<std::collections::hash::map::RandomState, std::thread::local::AccessError>" = type { i64, [2 x i64] }
%"std::thread::local::AccessError" = type {}
%"core::result::Result<core::convert::Infallible, std::thread::local::AccessError>::Err" = type { %"std::thread::local::AccessError" }
%"core::result::Result<std::collections::hash::map::RandomState, std::thread::local::AccessError>::Ok" = type { [1 x i64], { i64, i64 } }
%"std::sys::unix::stdio::Stderr" = type { {} }
%"std::thread::JoinHandle<()>" = type { %"std::thread::JoinInner<'_, ()>" }
%"std::thread::Builder" = type { { i64, i64 }, %"core::option::Option<alloc::string::String>" }
%"core::result::Result<std::thread::JoinHandle<()>, std::io::error::Error>" = type { [1 x i64], ptr, [1 x i64] }
%"core::result::Result<std::thread::JoinInner<'_, ()>, std::io::error::Error>" = type { [1 x i64], ptr, [1 x i64] }
%"core::ops::control_flow::ControlFlow<core::result::Result<core::convert::Infallible, std::io::error::Error>, std::thread::JoinInner<'_, ()>>" = type { [1 x i64], ptr, [1 x i64] }
%"[closure@std::thread::Builder::spawn_unchecked_<'_, '_, [closure@src/main.rs:18:19: 18:26], ()>::{closure#1}]" = type { ptr, %"std::thread::Builder::spawn_unchecked_::MaybeDangling<[closure@src/main.rs:18:19: 18:26]>", ptr, ptr }
%"std::thread::Builder::spawn_unchecked_::MaybeDangling<[closure@src/main.rs:18:19: 18:26]>" = type { %"core::mem::maybe_uninit::MaybeUninit<[closure@src/main.rs:18:19: 18:26]>" }
%"core::mem::maybe_uninit::MaybeUninit<[closure@src/main.rs:18:19: 18:26]>" = type { [7 x i64] }
%"core::result::Result<std::sys::unix::thread::Thread, std::io::error::Error>" = type { i64, [1 x i64] }
%"core::ops::control_flow::ControlFlow<core::result::Result<core::convert::Infallible, std::io::error::Error>, std::sys::unix::thread::Thread>" = type { i64, [1 x i64] }
%"alloc::sync::ArcInner<std::thread::Packet<'_, ()>>" = type { %"core::sync::atomic::AtomicUsize", %"core::sync::atomic::AtomicUsize", %"std::thread::Packet<'_, ()>" }
%"alloc::sync::ArcInner<std::thread::scoped::ScopeData>" = type { %"core::sync::atomic::AtomicUsize", %"core::sync::atomic::AtomicUsize", %"std::thread::scoped::ScopeData" }
%"std::thread::scoped::ScopeData" = type { %"core::sync::atomic::AtomicUsize", ptr, %"core::sync::atomic::AtomicBool", [7 x i8] }
%"core::result::Result<std::sys::unix::thread::Thread, std::io::error::Error>::Ok" = type { [1 x i64], i64 }
%"core::ops::control_flow::ControlFlow<core::result::Result<core::convert::Infallible, std::io::error::Error>, std::sys::unix::thread::Thread>::Continue" = type { [1 x i64], i64 }
%"core::result::Result<std::sys::unix::thread::Thread, std::io::error::Error>::Err" = type { [1 x i64], ptr }
%"core::ops::control_flow::ControlFlow<core::result::Result<core::convert::Infallible, std::io::error::Error>, std::sys::unix::thread::Thread>::Break" = type { [1 x i64], ptr }
%"core::mem::manually_drop::ManuallyDrop<[closure@src/main.rs:18:19: 18:26]>" = type { %"[closure@src/main.rs:18:19: 18:26]" }
%"core::option::Option<core::ops::range::Range<usize>>" = type { i64, [2 x i64] }
%"[closure@std::thread::Builder::spawn_unchecked_<'_, '_, [closure@src/main.rs:18:19: 18:26], ()>::{closure#0}]" = type {}
%"core::result::Result<alloc::ffi::c_str::CString, alloc::ffi::c_str::NulError>" = type { [2 x i64], ptr, [1 x i64] }
%"core::mem::manually_drop::ManuallyDrop<()>" = type { {} }
%"std::panicking::r#try::Data<core::panic::unwind_safe::AssertUnwindSafe<[closure@std::thread::local::fast::destroy_value<core::cell::Cell<(u64, u64)>>::{closure#0}]>, ()>" = type { [2 x i64] }
%"core::mem::manually_drop::ManuallyDrop<core::panic::unwind_safe::AssertUnwindSafe<[closure@std::thread::Builder::spawn_unchecked_<'_, '_, [closure@src/main.rs:18:19: 18:26], ()>::{closure#1}::{closure#0}]>>" = type { %"core::panic::unwind_safe::AssertUnwindSafe<[closure@std::thread::Builder::spawn_unchecked_<'_, '_, [closure@src/main.rs:18:19: 18:26], ()>::{closure#1}::{closure#0}]>" }
%"std::panicking::r#try::Data<core::panic::unwind_safe::AssertUnwindSafe<[closure@std::thread::Builder::spawn_unchecked_<'_, '_, [closure@src/main.rs:18:19: 18:26], ()>::{closure#1}::{closure#0}]>, ()>" = type { [7 x i64] }
%"std::panicking::r#try::Data<core::panic::unwind_safe::AssertUnwindSafe<[closure@<std::thread::Packet<'_, ()> as core::ops::drop::Drop>::drop::{closure#0}]>, ()>" = type { [2 x i64] }
%"core::mem::maybe_uninit::MaybeUninit<core::panic::unwind_safe::AssertUnwindSafe<[closure@std::thread::Builder::spawn_unchecked_<'_, '_, [closure@src/main.rs:18:19: 18:26], ()>::{closure#1}::{closure#0}]>>" = type { [7 x i64] }
%"core::mem::manually_drop::ManuallyDrop<hashbrown::raw::RawTableInner<alloc::alloc::Global>>" = type { %"hashbrown::raw::RawTableInner<alloc::alloc::Global>" }
%"core::mem::maybe_uninit::MaybeUninit<hashbrown::raw::RawTableInner<alloc::alloc::Global>>" = type { [4 x i64] }
%"core::mem::manually_drop::ManuallyDrop<core::mem::maybe_uninit::MaybeUninit<hashbrown::raw::RawTableInner<alloc::alloc::Global>>>" = type { %"core::mem::maybe_uninit::MaybeUninit<hashbrown::raw::RawTableInner<alloc::alloc::Global>>" }
%"core::mem::maybe_uninit::MaybeUninit<core::mem::maybe_uninit::MaybeUninit<hashbrown::raw::RawTableInner<alloc::alloc::Global>>>" = type { [4 x i64] }
%"core::mem::manually_drop::ManuallyDrop<core::option::Option<core::cell::Cell<(u64, u64)>>>" = type { %"core::option::Option<core::cell::Cell<(u64, u64)>>" }
%"core::mem::maybe_uninit::MaybeUninit<core::option::Option<core::cell::Cell<(u64, u64)>>>" = type { [3 x i64] }
%"core::mem::manually_drop::ManuallyDrop<core::option::Option<core::result::Result<(), alloc::boxed::Box<dyn core::any::Any + core::marker::Send>>>>" = type { %"core::option::Option<core::result::Result<(), alloc::boxed::Box<dyn core::any::Any + core::marker::Send>>>" }
%"core::mem::maybe_uninit::MaybeUninit<core::option::Option<core::result::Result<(), alloc::boxed::Box<dyn core::any::Any + core::marker::Send>>>>" = type { [3 x i64] }
%"core::mem::manually_drop::ManuallyDrop<alloc::string::String>" = type { %"alloc::string::String" }
%"core::mem::maybe_uninit::MaybeUninit<alloc::string::String>" = type { [3 x i64] }
%"alloc::sync::ArcInner<std::sync::mutex::Mutex<std::collections::hash::map::HashMap<alloc::string::String, alloc::string::String>>>" = type { %"core::sync::atomic::AtomicUsize", %"core::sync::atomic::AtomicUsize", %"std::sync::mutex::Mutex<std::collections::hash::map::HashMap<alloc::string::String, alloc::string::String>>" }
%"alloc::ffi::c_str::NulError" = type { i64, %"alloc::vec::Vec<u8>" }
%"std::sync::mutex::Mutex<alloc::vec::Vec<u8>>" = type { %"std::sys::unix::locks::futex_mutex::Mutex", %"std::sync::poison::Flag", [3 x i8], %"core::cell::UnsafeCell<alloc::vec::Vec<u8>>" }
%"core::cell::UnsafeCell<alloc::vec::Vec<u8>>" = type { %"alloc::vec::Vec<u8>" }
%"core::ops::range::RangeFull" = type {}
%"std::collections::hash::map::DefaultHasher" = type { %"core::hash::sip::SipHasher13" }
%"core::hash::sip::SipHasher13" = type { %"core::hash::sip::Hasher<core::hash::sip::Sip13Rounds>" }
%"core::hash::sip::Hasher<core::hash::sip::Sip13Rounds>" = type { %"core::marker::PhantomData<core::hash::sip::Sip13Rounds>", %"core::hash::sip::State", i64, i64, i64, i64, i64 }
%"core::marker::PhantomData<core::hash::sip::Sip13Rounds>" = type {}
%"core::hash::sip::State" = type { i64, i64, i64, i64 }
%"core::iter::adapters::step_by::StepBy<core::ops::range::Range<usize>>" = type { { i64, i64 }, i64, i8, [7 x i8] }
%"core::result::Result<usize, hashbrown::TryReserveError>" = type { [1 x i64], i64 }
%"alloc::sync::ArcInner<std::sync::mutex::Mutex<alloc::vec::Vec<u8>>>" = type { %"core::sync::atomic::AtomicUsize", %"core::sync::atomic::AtomicUsize", %"std::sync::mutex::Mutex<alloc::vec::Vec<u8>>" }
%"alloc::sync::ArcInner<std::thread::Inner>" = type { %"core::sync::atomic::AtomicUsize", %"core::sync::atomic::AtomicUsize", %"std::thread::Inner" }
%"std::thread::Inner" = type { { ptr, i64 }, i64, %"std::sys_common::thread_parking::futex::Parker", [1 x i32] }
%"std::sys_common::thread_parking::futex::Parker" = type { %"core::sync::atomic::AtomicU32" }
%"core::alloc::AllocError" = type {}
%"core::result::Result<core::convert::Infallible, core::alloc::AllocError>::Err" = type { %"core::alloc::AllocError" }
%"core::option::Option<(core::ptr::non_null::NonNull<u8>, core::alloc::layout::Layout)>" = type { [2 x i64], i64 }
%"core::fmt::builders::DebugStruct<'_, '_>" = type { ptr, i8, i8, [6 x i8] }
%"core::ops::control_flow::ControlFlow<core::result::Result<core::convert::Infallible, hashbrown::TryReserveError>, hashbrown::raw::RawTableInner<alloc::alloc::Global>>" = type { [3 x i64], ptr }
%"core::result::Result<hashbrown::raw::RawTableInner<alloc::alloc::Global>, hashbrown::TryReserveError>" = type { [3 x i64], ptr }
%"core::ops::control_flow::ControlFlow<core::result::Result<core::convert::Infallible, hashbrown::TryReserveError>, hashbrown::scopeguard::ScopeGuard<hashbrown::raw::RawTableInner<alloc::alloc::Global>, [closure@hashbrown::raw::RawTableInner<alloc::alloc::Global>::prepare_resize::{closure#0}]>>" = type { [3 x i64], ptr, [2 x i64] }
%"hashbrown::scopeguard::ScopeGuard<hashbrown::raw::RawTableInner<alloc::alloc::Global>, [closure@hashbrown::raw::RawTableInner<alloc::alloc::Global>::prepare_resize::{closure#0}]>" = type { %"hashbrown::raw::RawTableInner<alloc::alloc::Global>", { i64, i64 } }
%"core::result::Result<hashbrown::scopeguard::ScopeGuard<hashbrown::raw::RawTableInner<alloc::alloc::Global>, [closure@hashbrown::raw::RawTableInner<alloc::alloc::Global>::prepare_resize::{closure#0}]>, hashbrown::TryReserveError>" = type { [3 x i64], ptr, [2 x i64] }
%"hashbrown::scopeguard::ScopeGuard<&mut hashbrown::raw::RawTableInner<alloc::alloc::Global>, [closure@hashbrown::raw::RawTableInner<alloc::alloc::Global>::rehash_in_place::{closure#0}]>" = type { { ptr, i64 }, ptr }
%"hashbrown::raw::RawIter<(alloc::string::String, alloc::string::String)>" = type { %"hashbrown::raw::RawIterRange<(alloc::string::String, alloc::string::String)>", i64 }
%"hashbrown::raw::RawIterRange<(alloc::string::String, alloc::string::String)>" = type { ptr, ptr, ptr, i16, [3 x i16] }
%"core::option::Option<core::convert::Infallible>::None" = type {}
%"core::option::Option<(core::alloc::layout::Layout, usize)>" = type { [1 x i64], i64, [1 x i64] }
%"core::ops::control_flow::ControlFlow<core::result::Result<core::convert::Infallible, hashbrown::TryReserveError>, usize>" = type { [1 x i64], i64 }

@_ZN3std11collections4hash3map11RandomState3new4KEYS7__getit5__KEY17h349c00f4b5f0fb3bE = external thread_local global %"std::thread::local::fast::Key<core::cell::Cell<(u64, u64)>>"
@alloc23 = private unnamed_addr constant <{ ptr }> <{ ptr @_ZN3std11collections4hash3map11RandomState3new4KEYS7__getit17h12108b7036723bcdE }>, align 8
@alloc55 = private unnamed_addr constant <{ [1 x i8] }> <{ [1 x i8] c"#" }>, align 1
@alloc289 = private unnamed_addr constant <{ [73 x i8] }> <{ [73 x i8] c"/rustc/2c8cc343237b8f7d5a3c3703e3a87f2eb2c54a74/library/std/src/io/mod.rs" }>, align 1
@alloc290 = private unnamed_addr constant <{ ptr, [16 x i8] }> <{ ptr @alloc289, [16 x i8] c"I\00\00\00\00\00\00\00\0D\06\00\00!\00\00\00" }>, align 8
@alloc50 = private unnamed_addr constant <{ [28 x i8] }> <{ [28 x i8] c"failed to write whole buffer" }>, align 1
@alloc53 = private unnamed_addr constant <{ ptr, [9 x i8], [7 x i8] }> <{ ptr @alloc50, [9 x i8] c"\1C\00\00\00\00\00\00\00\17", [7 x i8] undef }>, align 8
@vtable.0 = private unnamed_addr constant <{ ptr, [16 x i8], ptr, ptr, ptr }> <{ ptr @"_ZN4core3ptr92drop_in_place$LT$std..io..Write..write_fmt..Adapter$LT$std..sys..unix..stdio..Stderr$GT$$GT$17h03c884d4cfae8012E", [16 x i8] c"\10\00\00\00\00\00\00\00\08\00\00\00\00\00\00\00", ptr @"_ZN80_$LT$std..io..Write..write_fmt..Adapter$LT$T$GT$$u20$as$u20$core..fmt..Write$GT$9write_str17h447b722962bdd03aE", ptr @_ZN4core3fmt5Write10write_char17hc3af6e4ebb923652E, ptr @_ZN4core3fmt5Write9write_fmt17hd40fc18275e6ed86E }>, align 8, !dbg !0
@alloc41 = private unnamed_addr constant <{ [15 x i8] }> <{ [15 x i8] c"formatter error" }>, align 1
@alloc44 = private unnamed_addr constant <{ ptr, [9 x i8], [7 x i8] }> <{ ptr @alloc41, [9 x i8] c"\0F\00\00\00\00\00\00\00(", [7 x i8] undef }>, align 8
@alloc299 = private unnamed_addr constant <{ [40 x i8] }> <{ [40 x i8] c"internal error: entered unreachable code" }>, align 1
@alloc297 = private unnamed_addr constant <{ [90 x i8] }> <{ [90 x i8] c"/rustc/2c8cc343237b8f7d5a3c3703e3a87f2eb2c54a74/library/std/src/io/error/repr_bitpacked.rs" }>, align 1
@alloc298 = private unnamed_addr constant <{ ptr, [16 x i8] }> <{ ptr @alloc297, [16 x i8] c"Z\00\00\00\00\00\00\00\18\01\00\00\0D\00\00\00" }>, align 8
@vtable.1 = private unnamed_addr constant <{ ptr, [16 x i8], ptr, ptr, ptr }> <{ ptr @"_ZN4core3ptr85drop_in_place$LT$std..rt..lang_start$LT$$LP$$RP$$GT$..$u7b$$u7b$closure$u7d$$u7d$$GT$17h789052f7bdc0fc8aE", [16 x i8] c"\08\00\00\00\00\00\00\00\08\00\00\00\00\00\00\00", ptr @"_ZN4core3ops8function6FnOnce40call_once$u7b$$u7b$vtable.shim$u7d$$u7d$17hba080d09ac5afe31E", ptr @"_ZN3std2rt10lang_start28_$u7b$$u7b$closure$u7d$$u7d$17h570bbc445ddddfc3E", ptr @"_ZN3std2rt10lang_start28_$u7b$$u7b$closure$u7d$$u7d$17h570bbc445ddddfc3E" }>, align 8, !dbg !163
@alloc308 = private unnamed_addr constant <{ [43 x i8] }> <{ [43 x i8] c"called `Option::unwrap()` on a `None` value" }>, align 1
@alloc321 = private unnamed_addr constant <{ [77 x i8] }> <{ [77 x i8] c"/rustc/2c8cc343237b8f7d5a3c3703e3a87f2eb2c54a74/library/std/src/thread/mod.rs" }>, align 1
@alloc307 = private unnamed_addr constant <{ ptr, [16 x i8] }> <{ ptr @alloc321, [16 x i8] c"M\00\00\00\00\00\00\00\B2\05\00\00I\00\00\00" }>, align 8
@alloc310 = private unnamed_addr constant <{ ptr, [16 x i8] }> <{ ptr @alloc321, [16 x i8] c"M\00\00\00\00\00\00\00\B2\05\00\00(\00\00\00" }>, align 8
@alloc311 = private unnamed_addr constant <{ [70 x i8] }> <{ [70 x i8] c"cannot access a Thread Local Storage value during or after destruction" }>, align 1
@alloc312 = private unnamed_addr constant <{ [79 x i8] }> <{ [79 x i8] c"/rustc/2c8cc343237b8f7d5a3c3703e3a87f2eb2c54a74/library/std/src/thread/local.rs" }>, align 1
@alloc313 = private unnamed_addr constant <{ ptr, [16 x i8] }> <{ ptr @alloc312, [16 x i8] c"O\00\00\00\00\00\00\00\A6\01\00\00\1A\00\00\00" }>, align 8
@alloc99 = private unnamed_addr constant <{ [21 x i8] }> <{ [21 x i8] c"fatal runtime error: " }>, align 1
@alloc125 = private unnamed_addr constant <{ [1 x i8] }> <{ [1 x i8] c"\0A" }>, align 1
@alloc100 = private unnamed_addr constant <{ ptr, [8 x i8], ptr, [8 x i8] }> <{ ptr @alloc99, [8 x i8] c"\15\00\00\00\00\00\00\00", ptr @alloc125, [8 x i8] c"\01\00\00\00\00\00\00\00" }>, align 8
@alloc29 = private unnamed_addr constant <{ [29 x i8] }> <{ [29 x i8] c"thread local panicked on drop" }>, align 1
@alloc30 = private unnamed_addr constant <{ ptr, [8 x i8] }> <{ ptr @alloc29, [8 x i8] c"\1D\00\00\00\00\00\00\00" }>, align 8
@alloc122 = private unnamed_addr constant <{}> zeroinitializer, align 8
@alloc314 = private unnamed_addr constant <{ [22 x i8] }> <{ [22 x i8] c"failed to spawn thread" }>, align 1
@alloc316 = private unnamed_addr constant <{ ptr, [16 x i8] }> <{ ptr @alloc321, [16 x i8] c"M\00\00\00\00\00\00\00\CB\02\00\00\1D\00\00\00" }>, align 8
@vtable.2 = private unnamed_addr constant <{ ptr, [16 x i8], ptr }> <{ ptr @"_ZN4core3ptr158drop_in_place$LT$std..thread..Builder..spawn_unchecked_$LT$demo..spawn_user_query..$u7b$$u7b$closure$u7d$$u7d$$C$$LP$$RP$$GT$..$u7b$$u7b$closure$u7d$$u7d$$GT$17h238dcf2e248c6901E", [16 x i8] c"P\00\00\00\00\00\00\00\08\00\00\00\00\00\00\00", ptr @"_ZN4core3ops8function6FnOnce40call_once$u7b$$u7b$vtable.shim$u7d$$u7d$17he3da9f410c41fc58E" }>, align 8, !dbg !181
@alloc320 = private unnamed_addr constant <{ [47 x i8] }> <{ [47 x i8] c"thread name may not contain interior null bytes" }>, align 1
@alloc322 = private unnamed_addr constant <{ ptr, [16 x i8] }> <{ ptr @alloc321, [16 x i8] c"M\00\00\00\00\00\00\00\F9\01\00\00 \00\00\00" }>, align 8
@_ZN3std9panicking11panic_count18GLOBAL_PANIC_COUNT17ha5914a2f71ca2b53E = external global %"core::sync::atomic::AtomicUsize"
@vtable.3 = private unnamed_addr constant <{ ptr, [16 x i8], ptr, ptr, ptr }> <{ ptr @"_ZN4core3ptr104drop_in_place$LT$$RF$mut$u20$std..io..Write..write_fmt..Adapter$LT$std..sys..unix..stdio..Stderr$GT$$GT$17h84ca65ad0e3be2caE", [16 x i8] c"\08\00\00\00\00\00\00\00\08\00\00\00\00\00\00\00", ptr @"_ZN50_$LT$$RF$mut$u20$W$u20$as$u20$core..fmt..Write$GT$9write_str17h5015a32e0bae06d1E", ptr @"_ZN50_$LT$$RF$mut$u20$W$u20$as$u20$core..fmt..Write$GT$10write_char17hd65123b9325ceefbE", ptr @"_ZN50_$LT$$RF$mut$u20$W$u20$as$u20$core..fmt..Write$GT$9write_fmt17ha322f492621f950aE" }>, align 8, !dbg !586
@alloc34 = private unnamed_addr constant <{ [12 x i8] }> <{ [12 x i8] c"invalid args" }>, align 1
@alloc35 = private unnamed_addr constant <{ ptr, [8 x i8] }> <{ ptr @alloc34, [8 x i8] c"\0C\00\00\00\00\00\00\00" }>, align 8
@alloc329 = private unnamed_addr constant <{ [75 x i8] }> <{ [75 x i8] c"/rustc/2c8cc343237b8f7d5a3c3703e3a87f2eb2c54a74/library/core/src/fmt/mod.rs" }>, align 1
@alloc330 = private unnamed_addr constant <{ ptr, [16 x i8] }> <{ ptr @alloc329, [16 x i8] c"K\00\00\00\00\00\00\00\91\01\00\00\0D\00\00\00" }>, align 8
@alloc331 = private unnamed_addr constant <{ [75 x i8] }> <{ [75 x i8] c"/rustc/2c8cc343237b8f7d5a3c3703e3a87f2eb2c54a74/library/core/src/num/mod.rs" }>, align 1
@alloc332 = private unnamed_addr constant <{ ptr, [16 x i8] }> <{ ptr @alloc331, [16 x i8] c"K\00\00\00\00\00\00\00\C5\03\00\00\05\00\00\00" }>, align 8
@str.4 = internal constant [28 x i8] c"attempt to add with overflow"
@alloc335 = private unnamed_addr constant <{ [80 x i8] }> <{ [80 x i8] c"/rustc/2c8cc343237b8f7d5a3c3703e3a87f2eb2c54a74/library/core/src/char/methods.rs" }>, align 1
@alloc334 = private unnamed_addr constant <{ ptr, [16 x i8] }> <{ ptr @alloc335, [16 x i8] c"P\00\00\00\00\00\00\00\DD\06\00\00\0A\00\00\00" }>, align 8
@alloc57 = private unnamed_addr constant <{ [18 x i8] }> <{ [18 x i8] c"encode_utf8: need " }>, align 1
@alloc59 = private unnamed_addr constant <{ [19 x i8] }> <{ [19 x i8] c" bytes to encode U+" }>, align 1
@alloc60 = private unnamed_addr constant <{ [21 x i8] }> <{ [21 x i8] c", but the buffer has " }>, align 1
@alloc58 = private unnamed_addr constant <{ ptr, [8 x i8], ptr, [8 x i8], ptr, [8 x i8] }> <{ ptr @alloc57, [8 x i8] c"\12\00\00\00\00\00\00\00", ptr @alloc59, [8 x i8] c"\13\00\00\00\00\00\00\00", ptr @alloc60, [8 x i8] c"\15\00\00\00\00\00\00\00" }>, align 8
@alloc336 = private unnamed_addr constant <{ ptr, [16 x i8] }> <{ ptr @alloc335, [16 x i8] c"P\00\00\00\00\00\00\00\D6\06\00\00\0E\00\00\00" }>, align 8
@alloc337 = private unnamed_addr constant <{ [27 x i8] }> <{ [27 x i8] c"assertion failed: step != 0" }>, align 1
@alloc338 = private unnamed_addr constant <{ [89 x i8] }> <{ [89 x i8] c"/rustc/2c8cc343237b8f7d5a3c3703e3a87f2eb2c54a74/library/core/src/iter/adapters/step_by.rs" }>, align 1
@alloc339 = private unnamed_addr constant <{ ptr, [16 x i8] }> <{ ptr @alloc338, [16 x i8] c"Y\00\00\00\00\00\00\00\15\00\00\00\09\00\00\00" }>, align 8
@alloc144 = private unnamed_addr constant <{ [49 x i8] }> <{ [49 x i8] c"there is no such thing as an acquire-release load" }>, align 1
@alloc145 = private unnamed_addr constant <{ ptr, [8 x i8] }> <{ ptr @alloc144, [8 x i8] c"1\00\00\00\00\00\00\00" }>, align 8
@alloc352 = private unnamed_addr constant <{ [79 x i8] }> <{ [79 x i8] c"/rustc/2c8cc343237b8f7d5a3c3703e3a87f2eb2c54a74/library/core/src/sync/atomic.rs" }>, align 1
@alloc341 = private unnamed_addr constant <{ ptr, [16 x i8] }> <{ ptr @alloc352, [16 x i8] c"O\00\00\00\00\00\00\00\D3\0B\00\00\17\00\00\00" }>, align 8
@alloc149 = private unnamed_addr constant <{ [40 x i8] }> <{ [40 x i8] c"there is no such thing as a release load" }>, align 1
@alloc150 = private unnamed_addr constant <{ ptr, [8 x i8] }> <{ ptr @alloc149, [8 x i8] c"(\00\00\00\00\00\00\00" }>, align 8
@alloc343 = private unnamed_addr constant <{ ptr, [16 x i8] }> <{ ptr @alloc352, [16 x i8] c"O\00\00\00\00\00\00\00\D2\0B\00\00\18\00\00\00" }>, align 8
@alloc191 = private unnamed_addr constant <{ [50 x i8] }> <{ [50 x i8] c"there is no such thing as an acquire-release store" }>, align 1
@alloc192 = private unnamed_addr constant <{ ptr, [8 x i8] }> <{ ptr @alloc191, [8 x i8] c"2\00\00\00\00\00\00\00" }>, align 8
@alloc345 = private unnamed_addr constant <{ ptr, [16 x i8] }> <{ ptr @alloc352, [16 x i8] c"O\00\00\00\00\00\00\00\C4\0B\00\00\17\00\00\00" }>, align 8
@alloc196 = private unnamed_addr constant <{ [42 x i8] }> <{ [42 x i8] c"there is no such thing as an acquire store" }>, align 1
@alloc197 = private unnamed_addr constant <{ ptr, [8 x i8] }> <{ ptr @alloc196, [8 x i8] c"*\00\00\00\00\00\00\00" }>, align 8
@alloc347 = private unnamed_addr constant <{ ptr, [16 x i8] }> <{ ptr @alloc352, [16 x i8] c"O\00\00\00\00\00\00\00\C3\0B\00\00\18\00\00\00" }>, align 8
@alloc137 = private unnamed_addr constant <{ [61 x i8] }> <{ [61 x i8] c"there is no such thing as an acquire-release failure ordering" }>, align 1
@alloc138 = private unnamed_addr constant <{ ptr, [8 x i8] }> <{ ptr @alloc137, [8 x i8] c"=\00\00\00\00\00\00\00" }>, align 8
@alloc349 = private unnamed_addr constant <{ ptr, [16 x i8] }> <{ ptr @alloc352, [16 x i8] c"O\00\00\00\00\00\00\00&\0C\00\00\1C\00\00\00" }>, align 8
@alloc132 = private unnamed_addr constant <{ [52 x i8] }> <{ [52 x i8] c"there is no such thing as a release failure ordering" }>, align 1
@alloc133 = private unnamed_addr constant <{ ptr, [8 x i8] }> <{ ptr @alloc132, [8 x i8] c"4\00\00\00\00\00\00\00" }>, align 8
@alloc351 = private unnamed_addr constant <{ ptr, [16 x i8] }> <{ ptr @alloc352, [16 x i8] c"O\00\00\00\00\00\00\00'\0C\00\00\1D\00\00\00" }>, align 8
@alloc92 = private unnamed_addr constant <{ [41 x i8] }> <{ [41 x i8] c"there is no such thing as a relaxed fence" }>, align 1
@alloc93 = private unnamed_addr constant <{ ptr, [8 x i8] }> <{ ptr @alloc92, [8 x i8] c")\00\00\00\00\00\00\00" }>, align 8
@alloc353 = private unnamed_addr constant <{ ptr, [16 x i8] }> <{ ptr @alloc352, [16 x i8] c"O\00\00\00\00\00\00\00*\0D\00\00\18\00\00\00" }>, align 8
@alloc354 = private unnamed_addr constant <{ [80 x i8] }> <{ [80 x i8] c"/rustc/2c8cc343237b8f7d5a3c3703e3a87f2eb2c54a74/library/core/src/alloc/layout.rs" }>, align 1
@alloc355 = private unnamed_addr constant <{ ptr, [16 x i8] }> <{ ptr @alloc354, [16 x i8] c"P\00\00\00\00\00\00\00\C4\01\00\00)\00\00\00" }>, align 8
@str.5 = internal constant [25 x i8] c"attempt to divide by zero"
@alloc356 = private unnamed_addr constant <{ [80 x i8] }> <{ [80 x i8] c"/rustc/2c8cc343237b8f7d5a3c3703e3a87f2eb2c54a74/library/core/src/slice/memchr.rs" }>, align 1
@alloc357 = private unnamed_addr constant <{ ptr, [16 x i8] }> <{ ptr @alloc356, [16 x i8] c"P\00\00\00\00\00\00\005\00\00\00\0C\00\00\00" }>, align 8
@vtable.6 = private unnamed_addr constant <{ ptr, [16 x i8], ptr }> <{ ptr @"_ZN4core3ptr52drop_in_place$LT$std..thread..local..AccessError$GT$17h9012c6765d890ed1E", [16 x i8] c"\00\00\00\00\00\00\00\00\01\00\00\00\00\00\00\00", ptr @"_ZN68_$LT$std..thread..local..AccessError$u20$as$u20$core..fmt..Debug$GT$3fmt17h9d05f210638fc8deE" }>, align 8, !dbg !597
@vtable.7 = private unnamed_addr constant <{ ptr, [16 x i8], ptr }> <{ ptr @"_ZN4core3ptr48drop_in_place$LT$alloc..ffi..c_str..NulError$GT$17hdfa4929f90fabc89E", [16 x i8] c" \00\00\00\00\00\00\00\08\00\00\00\00\00\00\00", ptr @"_ZN64_$LT$alloc..ffi..c_str..NulError$u20$as$u20$core..fmt..Debug$GT$3fmt17h46aec0dfdbe4e538E" }>, align 8, !dbg !607
@vtable.8 = private unnamed_addr constant <{ ptr, [16 x i8], ptr }> <{ ptr @"_ZN4core3ptr42drop_in_place$LT$std..io..error..Error$GT$17hd38d444766635b09E", [16 x i8] c"\08\00\00\00\00\00\00\00\08\00\00\00\00\00\00\00", ptr @"_ZN58_$LT$std..io..error..Error$u20$as$u20$core..fmt..Debug$GT$3fmt17h8b78aa37499eb01fE" }>, align 8, !dbg !619
@alloc371 = private unnamed_addr constant <{ [43 x i8] }> <{ [43 x i8] c"called `Result::unwrap()` on an `Err` value" }>, align 1
@vtable.9 = private unnamed_addr constant <{ ptr, [16 x i8], ptr }> <{ ptr @"_ZN4core3ptr184drop_in_place$LT$std..sync..poison..PoisonError$LT$std..sync..mutex..MutexGuard$LT$std..collections..hash..map..HashMap$LT$alloc..string..String$C$alloc..string..String$GT$$GT$$GT$$GT$17h404f91bcc5a89ce1E", [16 x i8] c"\10\00\00\00\00\00\00\00\08\00\00\00\00\00\00\00", ptr @"_ZN76_$LT$std..sync..poison..PoisonError$LT$T$GT$$u20$as$u20$core..fmt..Debug$GT$3fmt17h0d8d9d14c84cd3aeE" }>, align 8, !dbg !627
@vtable.a = private unnamed_addr constant <{ ptr, [16 x i8], ptr }> <{ ptr @"_ZN4core3ptr91drop_in_place$LT$alloc..boxed..Box$LT$dyn$u20$core..any..Any$u2b$core..marker..Send$GT$$GT$17h354882b0abfe9e4fE", [16 x i8] c"\10\00\00\00\00\00\00\00\08\00\00\00\00\00\00\00", ptr @"_ZN67_$LT$alloc..boxed..Box$LT$T$C$A$GT$$u20$as$u20$core..fmt..Debug$GT$3fmt17h26b89e6feb28378cE" }>, align 8, !dbg !649
@alloc375 = private unnamed_addr constant <{ [76 x i8] }> <{ [76 x i8] c"/rustc/2c8cc343237b8f7d5a3c3703e3a87f2eb2c54a74/library/alloc/src/raw_vec.rs" }>, align 1
@alloc376 = private unnamed_addr constant <{ ptr, [16 x i8] }> <{ ptr @alloc375, [16 x i8] c"L\00\00\00\00\00\00\00\F7\00\00\00;\00\00\00" }>, align 8
@alloc103 = private unnamed_addr constant <{ [30 x i8] }> <{ [30 x i8] c"thread result panicked on drop" }>, align 1
@alloc104 = private unnamed_addr constant <{ ptr, [8 x i8] }> <{ ptr @alloc103, [8 x i8] c"\1E\00\00\00\00\00\00\00" }>, align 8
@alloc377 = private unnamed_addr constant <{ [11 x i8] }> <{ [11 x i8] c"PoisonError" }>, align 1
@alloc75 = private unnamed_addr constant <{ [16 x i8] }> <{ [16 x i8] c"\FF\FF\FF\FF\FF\FF\FF\FF\FF\FF\FF\FF\FF\FF\FF\FF" }>, align 16
@vtable.b = private unnamed_addr constant <{ ptr, [16 x i8], ptr, ptr, ptr }> <{ ptr @"_ZN4core3ptr335drop_in_place$LT$hashbrown..raw..RawTable$LT$$LP$alloc..string..String$C$alloc..string..String$RP$$GT$..reserve_rehash$LT$hashbrown..map..make_hasher$LT$alloc..string..String$C$alloc..string..String$C$alloc..string..String$C$std..collections..hash..map..RandomState$GT$..$u7b$$u7b$closure$u7d$$u7d$$GT$..$u7b$$u7b$closure$u7d$$u7d$$GT$17hda500e9e70faaa35E", [16 x i8] c"\08\00\00\00\00\00\00\00\08\00\00\00\00\00\00\00", ptr @"_ZN4core3ops8function6FnOnce40call_once$u7b$$u7b$vtable.shim$u7d$$u7d$17hfb0f338c3725f27fE", ptr @"_ZN9hashbrown3raw21RawTable$LT$T$C$A$GT$14reserve_rehash28_$u7b$$u7b$closure$u7d$$u7d$17hc8600285ffac3363E", ptr @"_ZN9hashbrown3raw21RawTable$LT$T$C$A$GT$14reserve_rehash28_$u7b$$u7b$closure$u7d$$u7d$17hc8600285ffac3363E" }>, align 8, !dbg !657
@vtable.c = private unnamed_addr constant <{ ptr, [16 x i8], ptr, ptr }> <{ ptr @"_ZN4core3ptr285drop_in_place$LT$hashbrown..raw..RawTable$LT$$LP$alloc..string..String$C$alloc..string..String$RP$$GT$..find$LT$hashbrown..map..equivalent_key$LT$alloc..string..String$C$alloc..string..String$C$alloc..string..String$GT$..$u7b$$u7b$closure$u7d$$u7d$$GT$..$u7b$$u7b$closure$u7d$$u7d$$GT$17hb8e5ae3038dc871bE", [16 x i8] c"\10\00\00\00\00\00\00\00\08\00\00\00\00\00\00\00", ptr @"_ZN4core3ops8function6FnOnce40call_once$u7b$$u7b$vtable.shim$u7d$$u7d$17h27bc0baf51791907E", ptr @"_ZN9hashbrown3raw21RawTable$LT$T$C$A$GT$4find28_$u7b$$u7b$closure$u7d$$u7d$17he80510b47f82302cE" }>, align 8, !dbg !678
@alloc175 = private unnamed_addr constant <{ [56 x i8] }> <{ [56 x i8] c"XXX is your first event today. (simulated response for '" }>, align 1
@alloc177 = private unnamed_addr constant <{ [2 x i8] }> <{ [2 x i8] c"')" }>, align 1
@alloc176 = private unnamed_addr constant <{ ptr, [8 x i8], ptr, [8 x i8] }> <{ ptr @alloc175, [8 x i8] c"8\00\00\00\00\00\00\00", ptr @alloc177, [8 x i8] c"\02\00\00\00\00\00\00\00" }>, align 8
@alloc119 = private unnamed_addr constant <{ [6 x i8] }> <{ [6 x i8] c"query:" }>, align 1
@alloc120 = private unnamed_addr constant <{ ptr, [8 x i8] }> <{ ptr @alloc119, [8 x i8] c"\06\00\00\00\00\00\00\00" }>, align 8
@alloc398 = private unnamed_addr constant <{ [11 x i8] }> <{ [11 x i8] c"src/main.rs" }>, align 1
@alloc389 = private unnamed_addr constant <{ ptr, [16 x i8] }> <{ ptr @alloc398, [16 x i8] c"\0B\00\00\00\00\00\00\00\17\00\00\00)\00\00\00" }>, align 8
@alloc129 = private unnamed_addr constant <{ [17 x i8] }> <{ [17 x i8] c" got new answer: " }>, align 1
@alloc128 = private unnamed_addr constant <{ ptr, [8 x i8], ptr, [8 x i8], ptr, [8 x i8] }> <{ ptr @alloc122, [8 x i8] zeroinitializer, ptr @alloc129, [8 x i8] c"\11\00\00\00\00\00\00\00", ptr @alloc125, [8 x i8] c"\01\00\00\00\00\00\00\00" }>, align 8
@alloc391 = private unnamed_addr constant <{ ptr, [16 x i8] }> <{ ptr @alloc398, [16 x i8] c"\0B\00\00\00\00\00\00\00#\00\00\00-\00\00\00" }>, align 8
@alloc124 = private unnamed_addr constant <{ [20 x i8] }> <{ [20 x i8] c" got cached answer: " }>, align 1
@alloc123 = private unnamed_addr constant <{ ptr, [8 x i8], ptr, [8 x i8], ptr, [8 x i8] }> <{ ptr @alloc122, [8 x i8] zeroinitializer, ptr @alloc124, [8 x i8] c"\14\00\00\00\00\00\00\00", ptr @alloc125, [8 x i8] c"\01\00\00\00\00\00\00\00" }>, align 8
@alloc394 = private unnamed_addr constant <{ [29 x i8] }> <{ [29 x i8] c"What is my first event today?" }>, align 1
@alloc393 = private unnamed_addr constant <{ [5 x i8] }> <{ [5 x i8] c"UserA" }>, align 1
@alloc395 = private unnamed_addr constant <{ [5 x i8] }> <{ [5 x i8] c"UserB" }>, align 1
@alloc397 = private unnamed_addr constant <{ ptr, [16 x i8] }> <{ ptr @alloc398, [16 x i8] c"\0B\00\00\00\00\00\00\002\00\00\00\14\00\00\00" }>, align 8
@alloc399 = private unnamed_addr constant <{ ptr, [16 x i8] }> <{ ptr @alloc398, [16 x i8] c"\0B\00\00\00\00\00\00\003\00\00\00\14\00\00\00" }>, align 8
@__rustc_debug_gdb_scripts_section__ = linkonce_odr unnamed_addr constant [34 x i8] c"\01gdb_load_rust_pretty_printers.py\00", section ".debug_gdb_scripts", align 1

; <std::thread::Builder::spawn_unchecked_::MaybeDangling<T> as core::ops::drop::Drop>::drop
; Function Attrs: nonlazybind uwtable
define internal void @"_ZN104_$LT$std..thread..Builder..spawn_unchecked_..MaybeDangling$LT$T$GT$$u20$as$u20$core..ops..drop..Drop$GT$4drop17haa0fba57e8af1dcfE"(ptr align 8 %self) unnamed_addr #0 !dbg !818 {
start:
  %self.dbg.spill = alloca ptr, align 8
  store ptr %self, ptr %self.dbg.spill, align 8
  call void @llvm.dbg.declare(metadata ptr %self.dbg.spill, metadata !825, metadata !DIExpression()), !dbg !826
; call core::mem::maybe_uninit::MaybeUninit<T>::assume_init_drop
  call void @"_ZN4core3mem12maybe_uninit20MaybeUninit$LT$T$GT$16assume_init_drop17he358095925a70130E"(ptr align 8 %self), !dbg !827
  ret void, !dbg !828
}

; <core::ops::range::Range<usize> as core::slice::index::SliceIndex<[T]>>::get_unchecked
; Function Attrs: inlinehint nonlazybind uwtable
define internal { ptr, i64 } @"_ZN106_$LT$core..ops..range..Range$LT$usize$GT$$u20$as$u20$core..slice..index..SliceIndex$LT$$u5b$T$u5d$$GT$$GT$13get_unchecked17h9e3befae1e471f27E"(i64 %self.0, i64 %self.1, ptr %slice.0, i64 %slice.1) unnamed_addr #1 !dbg !829 {
start:
  %metadata.dbg.spill = alloca i64, align 8
  %data_address.dbg.spill = alloca ptr, align 8
  %self.dbg.spill5 = alloca ptr, align 8
  %len.dbg.spill = alloca i64, align 8
  %data.dbg.spill = alloca ptr, align 8
  %0 = alloca ptr, align 8
  %count.dbg.spill4 = alloca i64, align 8
  %self.dbg.spill3 = alloca ptr, align 8
  %count.dbg.spill = alloca i64, align 8
  %self.dbg.spill2 = alloca ptr, align 8
  %self.dbg.spill1 = alloca { ptr, i64 }, align 8
  %slice.dbg.spill = alloca { ptr, i64 }, align 8
  %self.dbg.spill = alloca { i64, i64 }, align 8
  %_26 = alloca { ptr, i64 }, align 8
  %_25 = alloca %"core::ptr::metadata::PtrRepr<[u8]>", align 8
  %1 = getelementptr inbounds { i64, i64 }, ptr %self.dbg.spill, i32 0, i32 0
  store i64 %self.0, ptr %1, align 8
  %2 = getelementptr inbounds { i64, i64 }, ptr %self.dbg.spill, i32 0, i32 1
  store i64 %self.1, ptr %2, align 8
  call void @llvm.dbg.declare(metadata ptr %self.dbg.spill, metadata !849, metadata !DIExpression()), !dbg !853
  %3 = getelementptr inbounds { ptr, i64 }, ptr %slice.dbg.spill, i32 0, i32 0
  store ptr %slice.0, ptr %3, align 8
  %4 = getelementptr inbounds { ptr, i64 }, ptr %slice.dbg.spill, i32 0, i32 1
  store i64 %slice.1, ptr %4, align 8
  call void @llvm.dbg.declare(metadata ptr %slice.dbg.spill, metadata !850, metadata !DIExpression()), !dbg !854
  %5 = getelementptr inbounds { ptr, i64 }, ptr %self.dbg.spill1, i32 0, i32 0, !dbg !855
  store ptr %slice.0, ptr %5, align 8, !dbg !855
  %6 = getelementptr inbounds { ptr, i64 }, ptr %self.dbg.spill1, i32 0, i32 1, !dbg !855
  store i64 %slice.1, ptr %6, align 8, !dbg !855
  call void @llvm.dbg.declare(metadata ptr %self.dbg.spill1, metadata !856, metadata !DIExpression()), !dbg !864
  store ptr %slice.0, ptr %self.dbg.spill2, align 8, !dbg !866
  call void @llvm.dbg.declare(metadata ptr %self.dbg.spill2, metadata !867, metadata !DIExpression()), !dbg !874
  store i64 %self.0, ptr %count.dbg.spill, align 8, !dbg !876
  call void @llvm.dbg.declare(metadata ptr %count.dbg.spill, metadata !873, metadata !DIExpression()), !dbg !877
  store ptr %slice.0, ptr %self.dbg.spill3, align 8, !dbg !878
  call void @llvm.dbg.declare(metadata ptr %self.dbg.spill3, metadata !879, metadata !DIExpression()), !dbg !886
  store i64 %self.0, ptr %count.dbg.spill4, align 8, !dbg !888
  call void @llvm.dbg.declare(metadata ptr %count.dbg.spill4, metadata !885, metadata !DIExpression()), !dbg !889
  %7 = getelementptr inbounds i8, ptr %slice.0, i64 %self.0, !dbg !890
  store ptr %7, ptr %0, align 8, !dbg !890
  %data = load ptr, ptr %0, align 8, !dbg !890, !noundef !28
  store ptr %data, ptr %data.dbg.spill, align 8, !dbg !890
  call void @llvm.dbg.declare(metadata ptr %data.dbg.spill, metadata !891, metadata !DIExpression()), !dbg !898
  %len = sub i64 %self.1, %self.0, !dbg !900
  store i64 %len, ptr %len.dbg.spill, align 8, !dbg !900
  call void @llvm.dbg.declare(metadata ptr %len.dbg.spill, metadata !897, metadata !DIExpression()), !dbg !901
  store ptr %data, ptr %self.dbg.spill5, align 8, !dbg !902
  call void @llvm.dbg.declare(metadata ptr %self.dbg.spill5, metadata !903, metadata !DIExpression()), !dbg !910
  store ptr %data, ptr %data_address.dbg.spill, align 8, !dbg !912
  call void @llvm.dbg.declare(metadata ptr %data_address.dbg.spill, metadata !913, metadata !DIExpression()), !dbg !921
  store i64 %len, ptr %metadata.dbg.spill, align 8, !dbg !923
  call void @llvm.dbg.declare(metadata ptr %metadata.dbg.spill, metadata !920, metadata !DIExpression()), !dbg !924
  store ptr %data, ptr %_26, align 8, !dbg !925
  %8 = getelementptr inbounds { ptr, i64 }, ptr %_26, i32 0, i32 1, !dbg !925
  store i64 %len, ptr %8, align 8, !dbg !925
  %9 = getelementptr inbounds { ptr, i64 }, ptr %_26, i32 0, i32 0, !dbg !926
  %10 = load ptr, ptr %9, align 8, !dbg !926, !noundef !28
  %11 = getelementptr inbounds { ptr, i64 }, ptr %_26, i32 0, i32 1, !dbg !926
  %12 = load i64, ptr %11, align 8, !dbg !926, !noundef !28
  %13 = getelementptr inbounds { ptr, i64 }, ptr %_25, i32 0, i32 0, !dbg !926
  store ptr %10, ptr %13, align 8, !dbg !926
  %14 = getelementptr inbounds { ptr, i64 }, ptr %_25, i32 0, i32 1, !dbg !926
  store i64 %12, ptr %14, align 8, !dbg !926
  %15 = getelementptr inbounds { ptr, i64 }, ptr %_25, i32 0, i32 0, !dbg !926
  %16 = load ptr, ptr %15, align 8, !dbg !926, !noundef !28
  %17 = getelementptr inbounds { ptr, i64 }, ptr %_25, i32 0, i32 1, !dbg !926
  %18 = load i64, ptr %17, align 8, !dbg !926, !noundef !28
  %19 = insertvalue { ptr, i64 } undef, ptr %16, 0, !dbg !927
  %20 = insertvalue { ptr, i64 } %19, i64 %18, 1, !dbg !927
  ret { ptr, i64 } %20, !dbg !927
}

; <core::ops::range::Range<usize> as core::slice::index::SliceIndex<[T]>>::get_unchecked_mut
; Function Attrs: inlinehint nonlazybind uwtable
define internal { ptr, i64 } @"_ZN106_$LT$core..ops..range..Range$LT$usize$GT$$u20$as$u20$core..slice..index..SliceIndex$LT$$u5b$T$u5d$$GT$$GT$17get_unchecked_mut17hec0e57819dc042caE"(i64 %self.0, i64 %self.1, ptr %slice.0, i64 %slice.1) unnamed_addr #1 !dbg !928 {
start:
  %metadata.dbg.spill = alloca i64, align 8
  %data_address.dbg.spill = alloca ptr, align 8
  %self.dbg.spill5 = alloca ptr, align 8
  %len.dbg.spill = alloca i64, align 8
  %data.dbg.spill = alloca ptr, align 8
  %0 = alloca ptr, align 8
  %count.dbg.spill4 = alloca i64, align 8
  %self.dbg.spill3 = alloca ptr, align 8
  %count.dbg.spill = alloca i64, align 8
  %self.dbg.spill2 = alloca ptr, align 8
  %self.dbg.spill1 = alloca { ptr, i64 }, align 8
  %slice.dbg.spill = alloca { ptr, i64 }, align 8
  %self.dbg.spill = alloca { i64, i64 }, align 8
  %_28 = alloca { ptr, i64 }, align 8
  %_27 = alloca %"core::ptr::metadata::PtrRepr<[u8]>", align 8
  %1 = getelementptr inbounds { i64, i64 }, ptr %self.dbg.spill, i32 0, i32 0
  store i64 %self.0, ptr %1, align 8
  %2 = getelementptr inbounds { i64, i64 }, ptr %self.dbg.spill, i32 0, i32 1
  store i64 %self.1, ptr %2, align 8
  call void @llvm.dbg.declare(metadata ptr %self.dbg.spill, metadata !936, metadata !DIExpression()), !dbg !940
  %3 = getelementptr inbounds { ptr, i64 }, ptr %slice.dbg.spill, i32 0, i32 0
  store ptr %slice.0, ptr %3, align 8
  %4 = getelementptr inbounds { ptr, i64 }, ptr %slice.dbg.spill, i32 0, i32 1
  store i64 %slice.1, ptr %4, align 8
  call void @llvm.dbg.declare(metadata ptr %slice.dbg.spill, metadata !937, metadata !DIExpression()), !dbg !941
  %5 = getelementptr inbounds { ptr, i64 }, ptr %self.dbg.spill1, i32 0, i32 0, !dbg !942
  store ptr %slice.0, ptr %5, align 8, !dbg !942
  %6 = getelementptr inbounds { ptr, i64 }, ptr %self.dbg.spill1, i32 0, i32 1, !dbg !942
  store i64 %slice.1, ptr %6, align 8, !dbg !942
  call void @llvm.dbg.declare(metadata ptr %self.dbg.spill1, metadata !943, metadata !DIExpression()), !dbg !952
  store ptr %slice.0, ptr %self.dbg.spill2, align 8, !dbg !954
  call void @llvm.dbg.declare(metadata ptr %self.dbg.spill2, metadata !955, metadata !DIExpression()), !dbg !962
  store i64 %self.0, ptr %count.dbg.spill, align 8, !dbg !964
  call void @llvm.dbg.declare(metadata ptr %count.dbg.spill, metadata !961, metadata !DIExpression()), !dbg !965
  store ptr %slice.0, ptr %self.dbg.spill3, align 8, !dbg !966
  call void @llvm.dbg.declare(metadata ptr %self.dbg.spill3, metadata !967, metadata !DIExpression()), !dbg !973
  store i64 %self.0, ptr %count.dbg.spill4, align 8, !dbg !975
  call void @llvm.dbg.declare(metadata ptr %count.dbg.spill4, metadata !972, metadata !DIExpression()), !dbg !976
  %7 = getelementptr inbounds i8, ptr %slice.0, i64 %self.0, !dbg !977
  store ptr %7, ptr %0, align 8, !dbg !977
  %_19 = load ptr, ptr %0, align 8, !dbg !977, !noundef !28
  store ptr %_19, ptr %data.dbg.spill, align 8, !dbg !977
  call void @llvm.dbg.declare(metadata ptr %data.dbg.spill, metadata !978, metadata !DIExpression()), !dbg !984
  %len = sub i64 %self.1, %self.0, !dbg !986
  store i64 %len, ptr %len.dbg.spill, align 8, !dbg !986
  call void @llvm.dbg.declare(metadata ptr %len.dbg.spill, metadata !983, metadata !DIExpression()), !dbg !987
  store ptr %_19, ptr %self.dbg.spill5, align 8, !dbg !988
  call void @llvm.dbg.declare(metadata ptr %self.dbg.spill5, metadata !989, metadata !DIExpression()), !dbg !995
  store ptr %_19, ptr %data_address.dbg.spill, align 8, !dbg !997
  call void @llvm.dbg.declare(metadata ptr %data_address.dbg.spill, metadata !998, metadata !DIExpression()), !dbg !1004
  store i64 %len, ptr %metadata.dbg.spill, align 8, !dbg !1006
  call void @llvm.dbg.declare(metadata ptr %metadata.dbg.spill, metadata !1003, metadata !DIExpression()), !dbg !1007
  store ptr %_19, ptr %_28, align 8, !dbg !1008
  %8 = getelementptr inbounds { ptr, i64 }, ptr %_28, i32 0, i32 1, !dbg !1008
  store i64 %len, ptr %8, align 8, !dbg !1008
  %9 = getelementptr inbounds { ptr, i64 }, ptr %_28, i32 0, i32 0, !dbg !1009
  %10 = load ptr, ptr %9, align 8, !dbg !1009, !noundef !28
  %11 = getelementptr inbounds { ptr, i64 }, ptr %_28, i32 0, i32 1, !dbg !1009
  %12 = load i64, ptr %11, align 8, !dbg !1009, !noundef !28
  %13 = getelementptr inbounds { ptr, i64 }, ptr %_27, i32 0, i32 0, !dbg !1009
  store ptr %10, ptr %13, align 8, !dbg !1009
  %14 = getelementptr inbounds { ptr, i64 }, ptr %_27, i32 0, i32 1, !dbg !1009
  store i64 %12, ptr %14, align 8, !dbg !1009
  %15 = getelementptr inbounds { ptr, i64 }, ptr %_27, i32 0, i32 0, !dbg !1009
  %16 = load ptr, ptr %15, align 8, !dbg !1009, !noundef !28
  %17 = getelementptr inbounds { ptr, i64 }, ptr %_27, i32 0, i32 1, !dbg !1009
  %18 = load i64, ptr %17, align 8, !dbg !1009, !noundef !28
  %19 = insertvalue { ptr, i64 } undef, ptr %16, 0, !dbg !1010
  %20 = insertvalue { ptr, i64 } %19, i64 %18, 1, !dbg !1010
  ret { ptr, i64 } %20, !dbg !1010
}

; <core::ops::range::Range<usize> as core::slice::index::SliceIndex<[T]>>::index_mut
; Function Attrs: inlinehint nonlazybind uwtable
define internal { ptr, i64 } @"_ZN106_$LT$core..ops..range..Range$LT$usize$GT$$u20$as$u20$core..slice..index..SliceIndex$LT$$u5b$T$u5d$$GT$$GT$9index_mut17he8f12fe55a69a79bE"(i64 %self.0, i64 %self.1, ptr align 1 %slice.0, i64 %slice.1, ptr align 8 %0) unnamed_addr #1 !dbg !1011 {
start:
  %slice.dbg.spill = alloca { ptr, i64 }, align 8
  %self.dbg.spill = alloca { i64, i64 }, align 8
  %1 = getelementptr inbounds { i64, i64 }, ptr %self.dbg.spill, i32 0, i32 0
  store i64 %self.0, ptr %1, align 8
  %2 = getelementptr inbounds { i64, i64 }, ptr %self.dbg.spill, i32 0, i32 1
  store i64 %self.1, ptr %2, align 8
  call void @llvm.dbg.declare(metadata ptr %self.dbg.spill, metadata !1027, metadata !DIExpression()), !dbg !1029
  %3 = getelementptr inbounds { ptr, i64 }, ptr %slice.dbg.spill, i32 0, i32 0
  store ptr %slice.0, ptr %3, align 8
  %4 = getelementptr inbounds { ptr, i64 }, ptr %slice.dbg.spill, i32 0, i32 1
  store i64 %slice.1, ptr %4, align 8
  call void @llvm.dbg.declare(metadata ptr %slice.dbg.spill, metadata !1028, metadata !DIExpression()), !dbg !1030
  %_4 = icmp ugt i64 %self.0, %self.1, !dbg !1031
  br i1 %_4, label %bb1, label %bb2, !dbg !1031

bb2:                                              ; preds = %start
  %_10 = icmp ugt i64 %self.1, %slice.1, !dbg !1032
  br i1 %_10, label %bb3, label %bb4, !dbg !1032

bb1:                                              ; preds = %start
; call core::slice::index::slice_index_order_fail
  call void @_ZN4core5slice5index22slice_index_order_fail17ha3b271b68dd7c9aaE(i64 %self.0, i64 %self.1, ptr align 8 %0) #21, !dbg !1033
  unreachable, !dbg !1033

bb4:                                              ; preds = %bb2
; call <core::ops::range::Range<usize> as core::slice::index::SliceIndex<[T]>>::get_unchecked_mut
  %5 = call { ptr, i64 } @"_ZN106_$LT$core..ops..range..Range$LT$usize$GT$$u20$as$u20$core..slice..index..SliceIndex$LT$$u5b$T$u5d$$GT$$GT$17get_unchecked_mut17hec0e57819dc042caE"(i64 %self.0, i64 %self.1, ptr %slice.0, i64 %slice.1), !dbg !1034
  %_20.0 = extractvalue { ptr, i64 } %5, 0, !dbg !1034
  %_20.1 = extractvalue { ptr, i64 } %5, 1, !dbg !1034
  %6 = insertvalue { ptr, i64 } undef, ptr %_20.0, 0, !dbg !1035
  %7 = insertvalue { ptr, i64 } %6, i64 %_20.1, 1, !dbg !1035
  ret { ptr, i64 } %7, !dbg !1035

bb3:                                              ; preds = %bb2
; call core::slice::index::slice_end_index_len_fail
  call void @_ZN4core5slice5index24slice_end_index_len_fail17h07c9c91cb1fc778eE(i64 %self.1, i64 %slice.1, ptr align 8 %0) #21, !dbg !1036
  unreachable, !dbg !1036
}

; <core::ops::range::RangeFrom<usize> as core::slice::index::SliceIndex<[T]>>::index
; Function Attrs: inlinehint nonlazybind uwtable
define internal { ptr, i64 } @"_ZN110_$LT$core..ops..range..RangeFrom$LT$usize$GT$$u20$as$u20$core..slice..index..SliceIndex$LT$$u5b$T$u5d$$GT$$GT$5index17hbcbf54748e9eac81E"(i64 %self, ptr align 1 %slice.0, i64 %slice.1, ptr align 8 %0) unnamed_addr #1 !dbg !1037 {
start:
  %ptr.dbg.spill = alloca { ptr, i64 }, align 8
  %self.dbg.spill3 = alloca { ptr, i64 }, align 8
  %slice.dbg.spill2 = alloca { ptr, i64 }, align 8
  %self.dbg.spill1 = alloca i64, align 8
  %slice.dbg.spill = alloca { ptr, i64 }, align 8
  %self.dbg.spill = alloca i64, align 8
  %_20 = alloca %"core::ptr::metadata::PtrRepr<[u8]>", align 8
  %_14 = alloca { i64, i64 }, align 8
  store i64 %self, ptr %self.dbg.spill, align 8
  call void @llvm.dbg.declare(metadata ptr %self.dbg.spill, metadata !1049, metadata !DIExpression()), !dbg !1051
  %1 = getelementptr inbounds { ptr, i64 }, ptr %slice.dbg.spill, i32 0, i32 0
  store ptr %slice.0, ptr %1, align 8
  %2 = getelementptr inbounds { ptr, i64 }, ptr %slice.dbg.spill, i32 0, i32 1
  store i64 %slice.1, ptr %2, align 8
  call void @llvm.dbg.declare(metadata ptr %slice.dbg.spill, metadata !1050, metadata !DIExpression()), !dbg !1052
  %_3 = icmp ugt i64 %self, %slice.1, !dbg !1053
  br i1 %_3, label %bb1, label %bb2, !dbg !1053

bb2:                                              ; preds = %start
  store i64 %self, ptr %self.dbg.spill1, align 8, !dbg !1054
  call void @llvm.dbg.declare(metadata ptr %self.dbg.spill1, metadata !1055, metadata !DIExpression()), !dbg !1061
  %3 = getelementptr inbounds { ptr, i64 }, ptr %slice.dbg.spill2, i32 0, i32 0, !dbg !1063
  store ptr %slice.0, ptr %3, align 8, !dbg !1063
  %4 = getelementptr inbounds { ptr, i64 }, ptr %slice.dbg.spill2, i32 0, i32 1, !dbg !1063
  store i64 %slice.1, ptr %4, align 8, !dbg !1063
  call void @llvm.dbg.declare(metadata ptr %slice.dbg.spill2, metadata !1060, metadata !DIExpression()), !dbg !1064
  %5 = getelementptr inbounds { ptr, i64 }, ptr %self.dbg.spill3, i32 0, i32 0, !dbg !1065
  store ptr %slice.0, ptr %5, align 8, !dbg !1065
  %6 = getelementptr inbounds { ptr, i64 }, ptr %self.dbg.spill3, i32 0, i32 1, !dbg !1065
  store i64 %slice.1, ptr %6, align 8, !dbg !1065
  call void @llvm.dbg.declare(metadata ptr %self.dbg.spill3, metadata !1066, metadata !DIExpression()), !dbg !1071
  %7 = getelementptr inbounds { ptr, i64 }, ptr %ptr.dbg.spill, i32 0, i32 0, !dbg !1073
  store ptr %slice.0, ptr %7, align 8, !dbg !1073
  %8 = getelementptr inbounds { ptr, i64 }, ptr %ptr.dbg.spill, i32 0, i32 1, !dbg !1073
  store i64 %slice.1, ptr %8, align 8, !dbg !1073
  call void @llvm.dbg.declare(metadata ptr %ptr.dbg.spill, metadata !1074, metadata !DIExpression()), !dbg !1077
  %9 = getelementptr inbounds { ptr, i64 }, ptr %_20, i32 0, i32 0, !dbg !1079
  store ptr %slice.0, ptr %9, align 8, !dbg !1079
  %10 = getelementptr inbounds { ptr, i64 }, ptr %_20, i32 0, i32 1, !dbg !1079
  store i64 %slice.1, ptr %10, align 8, !dbg !1079
  %11 = getelementptr inbounds { ptr, i64 }, ptr %_20, i32 0, i32 1, !dbg !1079
  %_16 = load i64, ptr %11, align 8, !dbg !1079, !noundef !28
  store i64 %self, ptr %_14, align 8, !dbg !1080
  %12 = getelementptr inbounds { i64, i64 }, ptr %_14, i32 0, i32 1, !dbg !1080
  store i64 %_16, ptr %12, align 8, !dbg !1080
  %13 = getelementptr inbounds { i64, i64 }, ptr %_14, i32 0, i32 0, !dbg !1080
  %14 = load i64, ptr %13, align 8, !dbg !1080, !noundef !28
  %15 = getelementptr inbounds { i64, i64 }, ptr %_14, i32 0, i32 1, !dbg !1080
  %16 = load i64, ptr %15, align 8, !dbg !1080, !noundef !28
; call <core::ops::range::Range<usize> as core::slice::index::SliceIndex<[T]>>::get_unchecked
  %17 = call { ptr, i64 } @"_ZN106_$LT$core..ops..range..Range$LT$usize$GT$$u20$as$u20$core..slice..index..SliceIndex$LT$$u5b$T$u5d$$GT$$GT$13get_unchecked17h9e3befae1e471f27E"(i64 %14, i64 %16, ptr %slice.0, i64 %slice.1), !dbg !1080
  %_11.0 = extractvalue { ptr, i64 } %17, 0, !dbg !1080
  %_11.1 = extractvalue { ptr, i64 } %17, 1, !dbg !1080
  %18 = insertvalue { ptr, i64 } undef, ptr %_11.0, 0, !dbg !1081
  %19 = insertvalue { ptr, i64 } %18, i64 %_11.1, 1, !dbg !1081
  ret { ptr, i64 } %19, !dbg !1081

bb1:                                              ; preds = %start
; call core::slice::index::slice_start_index_len_fail
  call void @_ZN4core5slice5index26slice_start_index_len_fail17h504609f2a6b168d1E(i64 %self, i64 %slice.1, ptr align 8 %0) #21, !dbg !1082
  unreachable, !dbg !1082
}

; <core::panic::unwind_safe::AssertUnwindSafe<F> as core::ops::function::FnOnce<()>>::call_once
; Function Attrs: nonlazybind uwtable
define internal void @"_ZN115_$LT$core..panic..unwind_safe..AssertUnwindSafe$LT$F$GT$$u20$as$u20$core..ops..function..FnOnce$LT$$LP$$RP$$GT$$GT$9call_once17h3f8f7de2981fa94bE"(ptr align 8 %self) unnamed_addr #0 !dbg !1083 {
start:
  %self.dbg.spill = alloca ptr, align 8
  %_args = alloca {}, align 1
  store ptr %self, ptr %self.dbg.spill, align 8
  call void @llvm.dbg.declare(metadata ptr %self.dbg.spill, metadata !1147, metadata !DIExpression()), !dbg !1152
  call void @llvm.dbg.declare(metadata ptr %_args, metadata !1148, metadata !DIExpression()), !dbg !1153
; call core::ops::function::FnOnce::call_once
  call void @_ZN4core3ops8function6FnOnce9call_once17h257dcbd056c65087E(ptr align 8 %self), !dbg !1154
  ret void, !dbg !1155
}

; <core::panic::unwind_safe::AssertUnwindSafe<F> as core::ops::function::FnOnce<()>>::call_once
; Function Attrs: nonlazybind uwtable
define internal void @"_ZN115_$LT$core..panic..unwind_safe..AssertUnwindSafe$LT$F$GT$$u20$as$u20$core..ops..function..FnOnce$LT$$LP$$RP$$GT$$GT$9call_once17h72efc2d0e978a42eE"(ptr %self) unnamed_addr #0 !dbg !1156 {
start:
  %_3 = alloca %"[closure@std::thread::Builder::spawn_unchecked_<'_, '_, [closure@src/main.rs:18:19: 18:26], ()>::{closure#1}::{closure#0}]", align 8
  %_args = alloca {}, align 1
  call void @llvm.dbg.declare(metadata ptr %self, metadata !1169, metadata !DIExpression()), !dbg !1173
  call void @llvm.dbg.declare(metadata ptr %_args, metadata !1170, metadata !DIExpression()), !dbg !1174
  call void @llvm.memcpy.p0.p0.i64(ptr align 8 %_3, ptr align 8 %self, i64 56, i1 false), !dbg !1175
; call std::thread::Builder::spawn_unchecked_::{{closure}}::{{closure}}
  call void @"_ZN3std6thread7Builder16spawn_unchecked_28_$u7b$$u7b$closure$u7d$$u7d$28_$u7b$$u7b$closure$u7d$$u7d$17h7b26e8af736100f6E"(ptr %_3), !dbg !1175
  ret void, !dbg !1176
}

; <core::panic::unwind_safe::AssertUnwindSafe<F> as core::ops::function::FnOnce<()>>::call_once
; Function Attrs: nonlazybind uwtable
define internal void @"_ZN115_$LT$core..panic..unwind_safe..AssertUnwindSafe$LT$F$GT$$u20$as$u20$core..ops..function..FnOnce$LT$$LP$$RP$$GT$$GT$9call_once17h98305063b3a3d444E"(ptr align 8 %self) unnamed_addr #0 !dbg !1177 {
start:
  %self.dbg.spill = alloca ptr, align 8
  %_args = alloca {}, align 1
  store ptr %self, ptr %self.dbg.spill, align 8
  call void @llvm.dbg.declare(metadata ptr %self.dbg.spill, metadata !1192, metadata !DIExpression()), !dbg !1196
  call void @llvm.dbg.declare(metadata ptr %_args, metadata !1193, metadata !DIExpression()), !dbg !1197
; call core::ops::function::FnOnce::call_once
  call void @_ZN4core3ops8function6FnOnce9call_once17he11187357d77d73fE(ptr align 8 %self), !dbg !1198
  ret void, !dbg !1199
}

; <core::ptr::non_null::NonNull<T> as core::convert::From<core::ptr::unique::Unique<T>>>::from
; Function Attrs: inlinehint nonlazybind uwtable
define internal ptr @"_ZN119_$LT$core..ptr..non_null..NonNull$LT$T$GT$$u20$as$u20$core..convert..From$LT$core..ptr..unique..Unique$LT$T$GT$$GT$$GT$4from17hcf3a75d9122787bdE"(ptr %unique) unnamed_addr #1 !dbg !1200 {
start:
  %ptr.dbg.spill = alloca ptr, align 8
  %self.dbg.spill1 = alloca ptr, align 8
  %self.dbg.spill = alloca ptr, align 8
  %unique.dbg.spill = alloca ptr, align 8
  %0 = alloca ptr, align 8
  store ptr %unique, ptr %unique.dbg.spill, align 8
  call void @llvm.dbg.declare(metadata ptr %unique.dbg.spill, metadata !1206, metadata !DIExpression()), !dbg !1207
  store ptr %unique, ptr %self.dbg.spill, align 8, !dbg !1208
  call void @llvm.dbg.declare(metadata ptr %self.dbg.spill, metadata !1209, metadata !DIExpression()), !dbg !1215
  store ptr %unique, ptr %self.dbg.spill1, align 8, !dbg !1217
  call void @llvm.dbg.declare(metadata ptr %self.dbg.spill1, metadata !1218, metadata !DIExpression()), !dbg !1223
  store ptr %unique, ptr %ptr.dbg.spill, align 8, !dbg !1225
  call void @llvm.dbg.declare(metadata ptr %ptr.dbg.spill, metadata !1226, metadata !DIExpression()), !dbg !1231
  store ptr %unique, ptr %0, align 8, !dbg !1233
  %1 = load ptr, ptr %0, align 8, !dbg !1234, !nonnull !28, !noundef !28
  ret ptr %1, !dbg !1234
}

; std::sys_common::backtrace::__rust_begin_short_backtrace
; Function Attrs: noinline nonlazybind uwtable
define internal void @_ZN3std10sys_common9backtrace28__rust_begin_short_backtrace17hbaf362e975b1c7baE(ptr %f) unnamed_addr #2 personality ptr @rust_eh_personality !dbg !1235 {
start:
  %0 = alloca { ptr, i32 }, align 8
  %dummy.dbg.spill = alloca {}, align 1
  %result.dbg.spill = alloca {}, align 1
  %_2 = alloca %"[closure@src/main.rs:18:19: 18:26]", align 8
  call void @llvm.dbg.declare(metadata ptr %result.dbg.spill, metadata !1242, metadata !DIExpression()), !dbg !1246
  call void @llvm.dbg.declare(metadata ptr %f, metadata !1241, metadata !DIExpression()), !dbg !1247
  call void @llvm.dbg.declare(metadata ptr %dummy.dbg.spill, metadata !1248, metadata !DIExpression()), !dbg !1255
  call void @llvm.memcpy.p0.p0.i64(ptr align 8 %_2, ptr align 8 %f, i64 56, i1 false), !dbg !1257
; call demo::spawn_user_query::{{closure}}
  call void @"_ZN4demo16spawn_user_query28_$u7b$$u7b$closure$u7d$$u7d$17hfd081d456ad34d77E"(ptr %_2), !dbg !1257
  call void asm sideeffect "", "~{memory}"(), !dbg !1258, !srcloc !1259
  br label %bb4, !dbg !1258

bb4:                                              ; preds = %start
  ret void, !dbg !1260

bb2:                                              ; No predecessors!
  %1 = load ptr, ptr %0, align 8, !dbg !1261, !noundef !28
  %2 = getelementptr inbounds { ptr, i32 }, ptr %0, i32 0, i32 1, !dbg !1261
  %3 = load i32, ptr %2, align 8, !dbg !1261, !noundef !28
  %4 = insertvalue { ptr, i32 } undef, ptr %1, 0, !dbg !1261
  %5 = insertvalue { ptr, i32 } %4, i32 %3, 1, !dbg !1261
  resume { ptr, i32 } %5, !dbg !1261
}

; std::sys_common::backtrace::__rust_begin_short_backtrace
; Function Attrs: noinline nonlazybind uwtable
define internal void @_ZN3std10sys_common9backtrace28__rust_begin_short_backtrace17hbeda6b8358bdad9eE(ptr %f) unnamed_addr #2 personality ptr @rust_eh_personality !dbg !1262 {
start:
  %0 = alloca { ptr, i32 }, align 8
  %dummy.dbg.spill = alloca {}, align 1
  %f.dbg.spill = alloca ptr, align 8
  %result.dbg.spill = alloca {}, align 1
  call void @llvm.dbg.declare(metadata ptr %result.dbg.spill, metadata !1267, metadata !DIExpression()), !dbg !1271
  store ptr %f, ptr %f.dbg.spill, align 8
  call void @llvm.dbg.declare(metadata ptr %f.dbg.spill, metadata !1266, metadata !DIExpression()), !dbg !1272
  call void @llvm.dbg.declare(metadata ptr %dummy.dbg.spill, metadata !1273, metadata !DIExpression()), !dbg !1276
; call core::ops::function::FnOnce::call_once
  call void @_ZN4core3ops8function6FnOnce9call_once17hbd6a4970e10a84bdE(ptr %f), !dbg !1278
  call void asm sideeffect "", "~{memory}"(), !dbg !1279, !srcloc !1259
  br label %bb4, !dbg !1279

bb4:                                              ; preds = %start
  ret void, !dbg !1280

bb2:                                              ; No predecessors!
  %1 = load ptr, ptr %0, align 8, !dbg !1281, !noundef !28
  %2 = getelementptr inbounds { ptr, i32 }, ptr %0, i32 0, i32 1, !dbg !1281
  %3 = load i32, ptr %2, align 8, !dbg !1281, !noundef !28
  %4 = insertvalue { ptr, i32 } undef, ptr %1, 0, !dbg !1281
  %5 = insertvalue { ptr, i32 } %4, i32 %3, 1, !dbg !1281
  resume { ptr, i32 } %5, !dbg !1281
}

; std::collections::hash::map::RandomState::new::{{closure}}
; Function Attrs: inlinehint nonlazybind uwtable
define internal { i64, i64 } @"_ZN3std11collections4hash3map11RandomState3new28_$u7b$$u7b$closure$u7d$$u7d$17h538edca5b86a3a4cE"(ptr align 8 %keys) unnamed_addr #1 !dbg !1282 {
start:
  %old.dbg.spill = alloca { i64, i64 }, align 8
  %self.dbg.spill3 = alloca i64, align 8
  %self.dbg.spill2 = alloca ptr, align 8
  %k1.dbg.spill = alloca i64, align 8
  %k0.dbg.spill = alloca i64, align 8
  %self.dbg.spill1 = alloca ptr, align 8
  %self.dbg.spill = alloca ptr, align 8
  %keys.dbg.spill = alloca ptr, align 8
  %_1.dbg.spill = alloca %"[closure@std::collections::hash::map::RandomState::new::{closure#0}]", align 1
  %val = alloca { i64, i64 }, align 8
  %0 = alloca { i64, i64 }, align 8
  call void @llvm.dbg.declare(metadata ptr %_1.dbg.spill, metadata !1295, metadata !DIExpression()), !dbg !1296
  store ptr %keys, ptr %keys.dbg.spill, align 8
  call void @llvm.dbg.declare(metadata ptr %keys.dbg.spill, metadata !1291, metadata !DIExpression()), !dbg !1297
  call void @llvm.dbg.declare(metadata ptr %val, metadata !1298, metadata !DIExpression()), !dbg !1307
  store ptr %keys, ptr %self.dbg.spill, align 8, !dbg !1309
  call void @llvm.dbg.declare(metadata ptr %self.dbg.spill, metadata !1310, metadata !DIExpression()), !dbg !1315
  store ptr %keys, ptr %self.dbg.spill1, align 8, !dbg !1317
  call void @llvm.dbg.declare(metadata ptr %self.dbg.spill1, metadata !1318, metadata !DIExpression()), !dbg !1325
  %1 = getelementptr inbounds { i64, i64 }, ptr %keys, i32 0, i32 0, !dbg !1327
  %_5.0 = load i64, ptr %1, align 8, !dbg !1327, !noundef !28
  %2 = getelementptr inbounds { i64, i64 }, ptr %keys, i32 0, i32 1, !dbg !1327
  %_5.1 = load i64, ptr %2, align 8, !dbg !1327, !noundef !28
  store i64 %_5.0, ptr %k0.dbg.spill, align 8, !dbg !1328
  call void @llvm.dbg.declare(metadata ptr %k0.dbg.spill, metadata !1292, metadata !DIExpression()), !dbg !1329
  store i64 %_5.1, ptr %k1.dbg.spill, align 8, !dbg !1330
  call void @llvm.dbg.declare(metadata ptr %k1.dbg.spill, metadata !1294, metadata !DIExpression()), !dbg !1331
  store ptr %keys, ptr %self.dbg.spill2, align 8, !dbg !1332
  call void @llvm.dbg.declare(metadata ptr %self.dbg.spill2, metadata !1304, metadata !DIExpression()), !dbg !1333
  store i64 %_5.0, ptr %self.dbg.spill3, align 8, !dbg !1334
  call void @llvm.dbg.declare(metadata ptr %self.dbg.spill3, metadata !1335, metadata !DIExpression()), !dbg !1343
  %_9 = add i64 %_5.0, 1, !dbg !1345
  store i64 %_9, ptr %val, align 8, !dbg !1346
  %3 = getelementptr inbounds { i64, i64 }, ptr %val, i32 0, i32 1, !dbg !1346
  store i64 %_5.1, ptr %3, align 8, !dbg !1346
  %4 = getelementptr inbounds { i64, i64 }, ptr %val, i32 0, i32 0, !dbg !1347
  %_23.0 = load i64, ptr %4, align 8, !dbg !1347, !noundef !28
  %5 = getelementptr inbounds { i64, i64 }, ptr %val, i32 0, i32 1, !dbg !1347
  %_23.1 = load i64, ptr %5, align 8, !dbg !1347, !noundef !28
; call core::cell::Cell<T>::replace
  %6 = call { i64, i64 } @"_ZN4core4cell13Cell$LT$T$GT$7replace17hae416fb9549b0aa2E"(ptr align 8 %keys, i64 %_23.0, i64 %_23.1), !dbg !1348
  %old.0 = extractvalue { i64, i64 } %6, 0, !dbg !1348
  %old.1 = extractvalue { i64, i64 } %6, 1, !dbg !1348
  %7 = getelementptr inbounds { i64, i64 }, ptr %old.dbg.spill, i32 0, i32 0, !dbg !1348
  store i64 %old.0, ptr %7, align 8, !dbg !1348
  %8 = getelementptr inbounds { i64, i64 }, ptr %old.dbg.spill, i32 0, i32 1, !dbg !1348
  store i64 %old.1, ptr %8, align 8, !dbg !1348
  call void @llvm.dbg.declare(metadata ptr %old.dbg.spill, metadata !1305, metadata !DIExpression()), !dbg !1349
  store i64 %_5.0, ptr %0, align 8, !dbg !1350
  %9 = getelementptr inbounds { i64, i64 }, ptr %0, i32 0, i32 1, !dbg !1350
  store i64 %_5.1, ptr %9, align 8, !dbg !1350
  %10 = getelementptr inbounds { i64, i64 }, ptr %0, i32 0, i32 0, !dbg !1351
  %11 = load i64, ptr %10, align 8, !dbg !1351, !noundef !28
  %12 = getelementptr inbounds { i64, i64 }, ptr %0, i32 0, i32 1, !dbg !1351
  %13 = load i64, ptr %12, align 8, !dbg !1351, !noundef !28
  %14 = insertvalue { i64, i64 } undef, i64 %11, 0, !dbg !1351
  %15 = insertvalue { i64, i64 } %14, i64 %13, 1, !dbg !1351
  ret { i64, i64 } %15, !dbg !1351
}

; std::collections::hash::map::RandomState::new::KEYS::__getit
; Function Attrs: inlinehint nonlazybind uwtable
define internal align 8 ptr @_ZN3std11collections4hash3map11RandomState3new4KEYS7__getit17h12108b7036723bcdE(ptr align 8 %init) unnamed_addr #1 !dbg !1352 {
start:
  %init.dbg.spill = alloca ptr, align 8
  %_4 = alloca ptr, align 8
  store ptr %init, ptr %init.dbg.spill, align 8
  call void @llvm.dbg.declare(metadata ptr %init.dbg.spill, metadata !1385, metadata !DIExpression()), !dbg !1386
  store ptr %init, ptr %_4, align 8, !dbg !1387
  %0 = load ptr, ptr %_4, align 8, !dbg !1388, !align !1389, !noundef !28
; call std::thread::local::fast::Key<T>::get
  %1 = call align 8 ptr @"_ZN3std6thread5local4fast12Key$LT$T$GT$3get17hdc3a55ca2e028017E"(ptr align 8 @_ZN3std11collections4hash3map11RandomState3new4KEYS7__getit5__KEY17h349c00f4b5f0fb3bE, ptr align 8 %0), !dbg !1388
  ret ptr %1, !dbg !1390
}

; std::collections::hash::map::RandomState::new::KEYS::__getit::{{closure}}
; Function Attrs: inlinehint nonlazybind uwtable
define internal { i64, i64 } @"_ZN3std11collections4hash3map11RandomState3new4KEYS7__getit28_$u7b$$u7b$closure$u7d$$u7d$17ha6416818a7145e9aE"(ptr align 8 %0) unnamed_addr #1 !dbg !1391 {
start:
  %value.dbg.spill4 = alloca { i64, i64 }, align 8
  %value.dbg.spill1 = alloca { i64, i64 }, align 8
  %value.dbg.spill = alloca { i64, i64 }, align 8
  %self.dbg.spill = alloca ptr, align 8
  %init.dbg.spill = alloca ptr, align 8
  %_14 = alloca { i64, i64 }, align 8
  %_10 = alloca %"core::option::Option<core::cell::Cell<(u64, u64)>>", align 8
  %_4 = alloca %"core::option::Option<core::cell::Cell<(u64, u64)>>", align 8
  %1 = alloca { i64, i64 }, align 8
  %_1 = alloca ptr, align 8
  store ptr %0, ptr %_1, align 8
  call void @llvm.dbg.declare(metadata ptr %_1, metadata !1399, metadata !DIExpression()), !dbg !1404
  %2 = load ptr, ptr %_1, align 8, !dbg !1405, !noundef !28
  %3 = ptrtoint ptr %2 to i64, !dbg !1405
  %4 = icmp eq i64 %3, 0, !dbg !1405
  %_2 = select i1 %4, i64 0, i64 1, !dbg !1405
  %5 = icmp eq i64 %_2, 1, !dbg !1405
  br i1 %5, label %bb1, label %bb4, !dbg !1405

bb1:                                              ; preds = %start
  %init = load ptr, ptr %_1, align 8, !dbg !1406, !nonnull !28, !align !1389, !noundef !28
  store ptr %init, ptr %init.dbg.spill, align 8, !dbg !1406
  call void @llvm.dbg.declare(metadata ptr %init.dbg.spill, metadata !1400, metadata !DIExpression()), !dbg !1406
  store ptr %init, ptr %self.dbg.spill, align 8, !dbg !1407
  call void @llvm.dbg.declare(metadata ptr %self.dbg.spill, metadata !1408, metadata !DIExpression()), !dbg !1414
  store i64 0, ptr %_10, align 8, !dbg !1416
; call core::mem::replace
  call void @_ZN4core3mem7replace17h3d5291bf21ea2076E(ptr sret(%"core::option::Option<core::cell::Cell<(u64, u64)>>") %_4, ptr align 8 %init, ptr %_10), !dbg !1417
  %_6 = load i64, ptr %_4, align 8, !dbg !1418, !range !1419, !noundef !28
  %6 = icmp eq i64 %_6, 1, !dbg !1418
  br i1 %6, label %bb2, label %bb3, !dbg !1418

bb4:                                              ; preds = %bb3, %start
; call std::sys::unix::rand::hashmap_random_keys
  %7 = call { i64, i64 } @_ZN3std3sys4unix4rand19hashmap_random_keys17he6b6771f52c5fd90E(), !dbg !1420
  %value.0 = extractvalue { i64, i64 } %7, 0, !dbg !1420
  %value.1 = extractvalue { i64, i64 } %7, 1, !dbg !1420
  %8 = getelementptr inbounds { i64, i64 }, ptr %value.dbg.spill, i32 0, i32 0, !dbg !1420
  store i64 %value.0, ptr %8, align 8, !dbg !1420
  %9 = getelementptr inbounds { i64, i64 }, ptr %value.dbg.spill, i32 0, i32 1, !dbg !1420
  store i64 %value.1, ptr %9, align 8, !dbg !1420
  call void @llvm.dbg.declare(metadata ptr %value.dbg.spill, metadata !1426, metadata !DIExpression()), !dbg !1431
  %10 = getelementptr inbounds { i64, i64 }, ptr %value.dbg.spill1, i32 0, i32 0, !dbg !1433
  store i64 %value.0, ptr %10, align 8, !dbg !1433
  %11 = getelementptr inbounds { i64, i64 }, ptr %value.dbg.spill1, i32 0, i32 1, !dbg !1433
  store i64 %value.1, ptr %11, align 8, !dbg !1433
  call void @llvm.dbg.declare(metadata ptr %value.dbg.spill1, metadata !1434, metadata !DIExpression()), !dbg !1439
  %12 = getelementptr inbounds { i64, i64 }, ptr %_14, i32 0, i32 0, !dbg !1441
  store i64 %value.0, ptr %12, align 8, !dbg !1441
  %13 = getelementptr inbounds { i64, i64 }, ptr %_14, i32 0, i32 1, !dbg !1441
  store i64 %value.1, ptr %13, align 8, !dbg !1441
  %14 = getelementptr inbounds { i64, i64 }, ptr %_14, i32 0, i32 0, !dbg !1442
  %15 = load i64, ptr %14, align 8, !dbg !1442, !noundef !28
  %16 = getelementptr inbounds { i64, i64 }, ptr %_14, i32 0, i32 1, !dbg !1442
  %17 = load i64, ptr %16, align 8, !dbg !1442, !noundef !28
  %18 = getelementptr inbounds { i64, i64 }, ptr %1, i32 0, i32 0, !dbg !1442
  store i64 %15, ptr %18, align 8, !dbg !1442
  %19 = getelementptr inbounds { i64, i64 }, ptr %1, i32 0, i32 1, !dbg !1442
  store i64 %17, ptr %19, align 8, !dbg !1442
  br label %bb5, !dbg !1443

bb2:                                              ; preds = %bb1
  %20 = getelementptr inbounds %"core::option::Option<core::cell::Cell<(u64, u64)>>::Some", ptr %_4, i32 0, i32 1, !dbg !1444
  %21 = getelementptr inbounds { i64, i64 }, ptr %20, i32 0, i32 0, !dbg !1444
  %value.02 = load i64, ptr %21, align 8, !dbg !1444, !noundef !28
  %22 = getelementptr inbounds { i64, i64 }, ptr %20, i32 0, i32 1, !dbg !1444
  %value.13 = load i64, ptr %22, align 8, !dbg !1444, !noundef !28
  %23 = getelementptr inbounds { i64, i64 }, ptr %value.dbg.spill4, i32 0, i32 0, !dbg !1444
  store i64 %value.02, ptr %23, align 8, !dbg !1444
  %24 = getelementptr inbounds { i64, i64 }, ptr %value.dbg.spill4, i32 0, i32 1, !dbg !1444
  store i64 %value.13, ptr %24, align 8, !dbg !1444
  call void @llvm.dbg.declare(metadata ptr %value.dbg.spill4, metadata !1402, metadata !DIExpression()), !dbg !1444
  %25 = getelementptr inbounds { i64, i64 }, ptr %1, i32 0, i32 0, !dbg !1445
  store i64 %value.02, ptr %25, align 8, !dbg !1445
  %26 = getelementptr inbounds { i64, i64 }, ptr %1, i32 0, i32 1, !dbg !1445
  store i64 %value.13, ptr %26, align 8, !dbg !1445
  br label %bb5, !dbg !1446

bb3:                                              ; preds = %bb1
  br label %bb4, !dbg !1447

bb5:                                              ; preds = %bb2, %bb4
  %27 = getelementptr inbounds { i64, i64 }, ptr %1, i32 0, i32 0, !dbg !1446
  %28 = load i64, ptr %27, align 8, !dbg !1446, !noundef !28
  %29 = getelementptr inbounds { i64, i64 }, ptr %1, i32 0, i32 1, !dbg !1446
  %30 = load i64, ptr %29, align 8, !dbg !1446, !noundef !28
  %31 = insertvalue { i64, i64 } undef, i64 %28, 0, !dbg !1446
  %32 = insertvalue { i64, i64 } %31, i64 %30, 1, !dbg !1446
  ret { i64, i64 } %32, !dbg !1446
}

; std::collections::hash::map::HashMap<K,V>::new
; Function Attrs: inlinehint nonlazybind uwtable
define internal void @"_ZN3std11collections4hash3map20HashMap$LT$K$C$V$GT$3new17he5a0311d62c33e71E"(ptr sret(%"std::collections::hash::map::HashMap<alloc::string::String, alloc::string::String>") %0) unnamed_addr #1 !dbg !1448 {
start:
  %hash_builder.dbg.spill = alloca { i64, i64 }, align 8
  %_2 = alloca %"hashbrown::map::HashMap<alloc::string::String, alloc::string::String, std::collections::hash::map::RandomState>", align 8
; call std::thread::local::LocalKey<T>::with
  %1 = call { i64, i64 } @"_ZN3std6thread5local17LocalKey$LT$T$GT$4with17h223b624fc3201547E"(ptr align 8 @alloc23), !dbg !1452
  %hash_builder.0 = extractvalue { i64, i64 } %1, 0, !dbg !1452
  %hash_builder.1 = extractvalue { i64, i64 } %1, 1, !dbg !1452
  %2 = getelementptr inbounds { i64, i64 }, ptr %hash_builder.dbg.spill, i32 0, i32 0, !dbg !1452
  store i64 %hash_builder.0, ptr %2, align 8, !dbg !1452
  %3 = getelementptr inbounds { i64, i64 }, ptr %hash_builder.dbg.spill, i32 0, i32 1, !dbg !1452
  store i64 %hash_builder.1, ptr %3, align 8, !dbg !1452
  call void @llvm.dbg.declare(metadata ptr %hash_builder.dbg.spill, metadata !1463, metadata !DIExpression()), !dbg !1468
; call hashbrown::map::HashMap<K,V,S>::with_hasher
  call void @"_ZN9hashbrown3map24HashMap$LT$K$C$V$C$S$GT$11with_hasher17hf0e472440c1490c5E"(ptr sret(%"hashbrown::map::HashMap<alloc::string::String, alloc::string::String, std::collections::hash::map::RandomState>") %_2, i64 %hash_builder.0, i64 %hash_builder.1), !dbg !1470
  call void @llvm.memcpy.p0.p0.i64(ptr align 8 %0, ptr align 8 %_2, i64 48, i1 false), !dbg !1471
  ret void, !dbg !1472
}

; std::collections::hash::map::HashMap<K,V,S>::get
; Function Attrs: inlinehint nonlazybind uwtable
define internal align 8 ptr @"_ZN3std11collections4hash3map24HashMap$LT$K$C$V$C$S$GT$3get17h389d6295029153eaE"(ptr align 8 %self, ptr align 8 %k) unnamed_addr #1 !dbg !1473 {
start:
  %k.dbg.spill = alloca ptr, align 8
  %self.dbg.spill = alloca ptr, align 8
  store ptr %self, ptr %self.dbg.spill, align 8
  call void @llvm.dbg.declare(metadata ptr %self.dbg.spill, metadata !1491, metadata !DIExpression()), !dbg !1495
  store ptr %k, ptr %k.dbg.spill, align 8
  call void @llvm.dbg.declare(metadata ptr %k.dbg.spill, metadata !1492, metadata !DIExpression()), !dbg !1496
; call hashbrown::map::HashMap<K,V,S,A>::get
  %0 = call align 8 ptr @"_ZN9hashbrown3map28HashMap$LT$K$C$V$C$S$C$A$GT$3get17hd4c8f70f8e8ba19dE"(ptr align 8 %self, ptr align 8 %k), !dbg !1497
  ret ptr %0, !dbg !1498
}

; std::collections::hash::map::HashMap<K,V,S>::insert
; Function Attrs: inlinehint nonlazybind uwtable
define internal void @"_ZN3std11collections4hash3map24HashMap$LT$K$C$V$C$S$GT$6insert17h2331467d05596f1dE"(ptr sret(%"core::option::Option<alloc::string::String>") %0, ptr align 8 %self, ptr %k, ptr %v) unnamed_addr #1 !dbg !1499 {
start:
  %self.dbg.spill = alloca ptr, align 8
  %_6 = alloca %"alloc::string::String", align 8
  %_5 = alloca %"alloc::string::String", align 8
  store ptr %self, ptr %self.dbg.spill, align 8
  call void @llvm.dbg.declare(metadata ptr %self.dbg.spill, metadata !1517, metadata !DIExpression()), !dbg !1520
  call void @llvm.dbg.declare(metadata ptr %k, metadata !1518, metadata !DIExpression()), !dbg !1521
  call void @llvm.dbg.declare(metadata ptr %v, metadata !1519, metadata !DIExpression()), !dbg !1522
  call void @llvm.memcpy.p0.p0.i64(ptr align 8 %_5, ptr align 8 %k, i64 24, i1 false), !dbg !1523
  call void @llvm.memcpy.p0.p0.i64(ptr align 8 %_6, ptr align 8 %v, i64 24, i1 false), !dbg !1524
; call hashbrown::map::HashMap<K,V,S,A>::insert
  call void @"_ZN9hashbrown3map28HashMap$LT$K$C$V$C$S$C$A$GT$6insert17h67ec4e5b40d2c96cE"(ptr sret(%"core::option::Option<alloc::string::String>") %0, ptr align 8 %self, ptr %_5, ptr %_6), !dbg !1525
  ret void, !dbg !1526
}

; std::io::Write::write_all
; Function Attrs: nonlazybind uwtable
define internal ptr @_ZN3std2io5Write9write_all17h5979e20900e9de91E(ptr align 1 %self, ptr align 1 %0, i64 %1) unnamed_addr #0 personality ptr @rust_eh_personality !dbg !1527 {
start:
  %ptr.dbg.spill = alloca ptr, align 8
  %m.dbg.spill = alloca ptr, align 8
  %msg.dbg.spill = alloca ptr, align 8
  %self.dbg.spill7 = alloca { ptr, i64 }, align 8
  %n.dbg.spill = alloca i64, align 8
  %e.dbg.spill4 = alloca ptr, align 8
  %__arg1_tag.dbg.spill = alloca i64, align 8
  %__self_tag.dbg.spill = alloca i64, align 8
  %other.dbg.spill = alloca ptr, align 8
  %self.dbg.spill2 = alloca ptr, align 8
  %2 = alloca { ptr, i32 }, align 8
  %e.dbg.spill = alloca ptr, align 8
  %self.dbg.spill1 = alloca { ptr, i64 }, align 8
  %self.dbg.spill = alloca ptr, align 8
  %_39 = alloca ptr, align 8
  %_37 = alloca ptr, align 8
  %_24 = alloca i8, align 1
  %e = alloca ptr, align 8
  %index = alloca i64, align 8
  %_10 = alloca ptr, align 8
  %_6 = alloca %"core::result::Result<usize, std::io::error::Error>", align 8
  %3 = alloca ptr, align 8
  %buf = alloca { ptr, i64 }, align 8
  %4 = getelementptr inbounds { ptr, i64 }, ptr %buf, i32 0, i32 0
  store ptr %0, ptr %4, align 8
  %5 = getelementptr inbounds { ptr, i64 }, ptr %buf, i32 0, i32 1
  store i64 %1, ptr %5, align 8
  store ptr %self, ptr %self.dbg.spill, align 8
  call void @llvm.dbg.declare(metadata ptr %self.dbg.spill, metadata !1532, metadata !DIExpression()), !dbg !1545
  call void @llvm.dbg.declare(metadata ptr %buf, metadata !1533, metadata !DIExpression()), !dbg !1546
  call void @llvm.dbg.declare(metadata ptr %index, metadata !1547, metadata !DIExpression()), !dbg !1556
  call void @llvm.dbg.declare(metadata ptr %e, metadata !1536, metadata !DIExpression()), !dbg !1558
  br label %bb1, !dbg !1559

bb1:                                              ; preds = %bb16, %start
  %6 = getelementptr inbounds { ptr, i64 }, ptr %buf, i32 0, i32 0, !dbg !1560
  %self.0 = load ptr, ptr %6, align 8, !dbg !1560, !nonnull !28, !align !1561, !noundef !28
  %7 = getelementptr inbounds { ptr, i64 }, ptr %buf, i32 0, i32 1, !dbg !1560
  %self.1 = load i64, ptr %7, align 8, !dbg !1560, !noundef !28
  %8 = getelementptr inbounds { ptr, i64 }, ptr %self.dbg.spill1, i32 0, i32 0, !dbg !1560
  store ptr %self.0, ptr %8, align 8, !dbg !1560
  %9 = getelementptr inbounds { ptr, i64 }, ptr %self.dbg.spill1, i32 0, i32 1, !dbg !1560
  store i64 %self.1, ptr %9, align 8, !dbg !1560
  call void @llvm.dbg.declare(metadata ptr %self.dbg.spill1, metadata !1562, metadata !DIExpression()), !dbg !1569
  %_4 = icmp eq i64 %self.1, 0, !dbg !1571
  %_3 = xor i1 %_4, true, !dbg !1572
  br i1 %_3, label %bb2, label %bb12, !dbg !1572

bb12:                                             ; preds = %bb1
  store ptr null, ptr %3, align 8, !dbg !1573
  br label %bb14, !dbg !1574

bb2:                                              ; preds = %bb1
  %10 = getelementptr inbounds { ptr, i64 }, ptr %buf, i32 0, i32 0, !dbg !1575
  %_8.0 = load ptr, ptr %10, align 8, !dbg !1575, !nonnull !28, !align !1561, !noundef !28
  %11 = getelementptr inbounds { ptr, i64 }, ptr %buf, i32 0, i32 1, !dbg !1575
  %_8.1 = load i64, ptr %11, align 8, !dbg !1575, !noundef !28
; call <std::sys::unix::stdio::Stderr as std::io::Write>::write
  call void @"_ZN64_$LT$std..sys..unix..stdio..Stderr$u20$as$u20$std..io..Write$GT$5write17he10f3cdf2d243ffdE"(ptr sret(%"core::result::Result<usize, std::io::error::Error>") %_6, ptr align 1 %self, ptr align 1 %_8.0, i64 %_8.1), !dbg !1576
  %_9 = load i64, ptr %_6, align 8, !dbg !1576, !range !1419, !noundef !28
  %12 = icmp eq i64 %_9, 0, !dbg !1577
  br i1 %12, label %bb4, label %bb8, !dbg !1577

bb4:                                              ; preds = %bb2
  %13 = getelementptr inbounds %"core::result::Result<usize, std::io::error::Error>::Ok", ptr %_6, i32 0, i32 1, !dbg !1577
  %14 = load i64, ptr %13, align 8, !dbg !1577, !noundef !28
  %15 = icmp eq i64 %14, 0, !dbg !1577
  br i1 %15, label %bb6, label %bb7, !dbg !1577

bb8:                                              ; preds = %bb2
  %16 = getelementptr inbounds %"core::result::Result<usize, std::io::error::Error>::Err", ptr %_6, i32 0, i32 1, !dbg !1578
  store ptr %16, ptr %e, align 8, !dbg !1578
  store ptr %e, ptr %e.dbg.spill, align 8, !dbg !1578
  call void @llvm.dbg.declare(metadata ptr %e.dbg.spill, metadata !1539, metadata !DIExpression()), !dbg !1558
  %_31 = load ptr, ptr %e, align 8, !dbg !1579, !nonnull !28, !align !1389, !noundef !28
; invoke std::io::error::Error::kind
  %17 = invoke i8 @_ZN3std2io5error5Error4kind17h70385ea48fdaba4dE(ptr align 8 %_31)
          to label %bb9 unwind label %cleanup, !dbg !1579, !range !1580

bb5:                                              ; No predecessors!
  unreachable, !dbg !1576

bb22:                                             ; preds = %cleanup
  %_34 = load i64, ptr %_6, align 8, !dbg !1581, !range !1419, !noundef !28
  %18 = icmp eq i64 %_34, 1, !dbg !1581
  br i1 %18, label %bb20, label %bb15, !dbg !1581

cleanup:                                          ; preds = %bb7, %bb8
  %19 = landingpad { ptr, i32 }
          cleanup
  %20 = extractvalue { ptr, i32 } %19, 0
  %21 = extractvalue { ptr, i32 } %19, 1
  %22 = getelementptr inbounds { ptr, i32 }, ptr %2, i32 0, i32 0
  store ptr %20, ptr %22, align 8
  %23 = getelementptr inbounds { ptr, i32 }, ptr %2, i32 0, i32 1
  store i32 %21, ptr %23, align 8
  br label %bb22

bb9:                                              ; preds = %bb8
  store i8 %17, ptr %_24, align 1, !dbg !1579
  store ptr %_24, ptr %self.dbg.spill2, align 8, !dbg !1579
  call void @llvm.dbg.declare(metadata ptr %self.dbg.spill2, metadata !1582, metadata !DIExpression()), !dbg !1595
  store ptr @alloc55, ptr %other.dbg.spill, align 8, !dbg !1596
  call void @llvm.dbg.declare(metadata ptr %other.dbg.spill, metadata !1590, metadata !DIExpression()), !dbg !1595
  %24 = load i8, ptr %_24, align 1, !dbg !1595, !range !1580, !noundef !28
  %__self_tag = zext i8 %24 to i64, !dbg !1595
  store i64 %__self_tag, ptr %__self_tag.dbg.spill, align 8, !dbg !1595
  call void @llvm.dbg.declare(metadata ptr %__self_tag.dbg.spill, metadata !1591, metadata !DIExpression()), !dbg !1597
  %25 = load i8, ptr @alloc55, align 1, !dbg !1597, !range !1580, !noundef !28
  %__arg1_tag = zext i8 %25 to i64, !dbg !1597
  store i64 %__arg1_tag, ptr %__arg1_tag.dbg.spill, align 8, !dbg !1597
  call void @llvm.dbg.declare(metadata ptr %__arg1_tag.dbg.spill, metadata !1593, metadata !DIExpression()), !dbg !1598
  %_22 = icmp eq i64 %__self_tag, %__arg1_tag, !dbg !1598
  br i1 %_22, label %bb10, label %bb11, !dbg !1579

bb11:                                             ; preds = %bb9
  %26 = getelementptr inbounds %"core::result::Result<usize, std::io::error::Error>::Err", ptr %_6, i32 0, i32 1, !dbg !1599
  %e3 = load ptr, ptr %26, align 8, !dbg !1599, !nonnull !28, !noundef !28
  store ptr %e3, ptr %e.dbg.spill4, align 8, !dbg !1599
  call void @llvm.dbg.declare(metadata ptr %e.dbg.spill4, metadata !1541, metadata !DIExpression()), !dbg !1600
  store ptr %e3, ptr %3, align 8, !dbg !1601
  br label %bb13, !dbg !1602

bb10:                                             ; preds = %bb9
  br label %bb19, !dbg !1605

bb19:                                             ; preds = %bb23, %bb10
  %_33 = load i64, ptr %_6, align 8, !dbg !1581, !range !1419, !noundef !28
  %27 = icmp eq i64 %_33, 1, !dbg !1581
  br i1 %27, label %bb17, label %bb16, !dbg !1581

bb13:                                             ; preds = %bb6, %bb11
  br label %bb14, !dbg !1574

bb6:                                              ; preds = %bb4
  store ptr @alloc53, ptr %msg.dbg.spill, align 8, !dbg !1606
  call void @llvm.dbg.declare(metadata ptr %msg.dbg.spill, metadata !1607, metadata !DIExpression()), !dbg !1612
  store ptr @alloc53, ptr %m.dbg.spill, align 8, !dbg !1615
  call void @llvm.dbg.declare(metadata ptr %m.dbg.spill, metadata !1616, metadata !DIExpression()), !dbg !1622
  store ptr @alloc53, ptr %ptr.dbg.spill, align 8, !dbg !1624
  call void @llvm.dbg.declare(metadata ptr %ptr.dbg.spill, metadata !1625, metadata !DIExpression()), !dbg !1630
  store ptr @alloc53, ptr %_39, align 8, !dbg !1632
  %28 = load ptr, ptr %_39, align 8, !dbg !1633, !nonnull !28, !noundef !28
  store ptr %28, ptr %_37, align 8, !dbg !1633
  %29 = load ptr, ptr %_37, align 8, !dbg !1634, !nonnull !28, !noundef !28
  store ptr %29, ptr %_10, align 8, !dbg !1634
  %30 = load ptr, ptr %_10, align 8, !dbg !1635, !nonnull !28, !noundef !28
  store ptr %30, ptr %3, align 8, !dbg !1635
  br label %bb13, !dbg !1602

bb7:                                              ; preds = %bb4
  %31 = getelementptr inbounds %"core::result::Result<usize, std::io::error::Error>::Ok", ptr %_6, i32 0, i32 1, !dbg !1636
  %n = load i64, ptr %31, align 8, !dbg !1636, !noundef !28
  store i64 %n, ptr %n.dbg.spill, align 8, !dbg !1636
  call void @llvm.dbg.declare(metadata ptr %n.dbg.spill, metadata !1534, metadata !DIExpression()), !dbg !1637
  %32 = getelementptr inbounds { ptr, i64 }, ptr %buf, i32 0, i32 0, !dbg !1557
  %self.05 = load ptr, ptr %32, align 8, !dbg !1557, !nonnull !28, !align !1561, !noundef !28
  %33 = getelementptr inbounds { ptr, i64 }, ptr %buf, i32 0, i32 1, !dbg !1557
  %self.16 = load i64, ptr %33, align 8, !dbg !1557, !noundef !28
  %34 = getelementptr inbounds { ptr, i64 }, ptr %self.dbg.spill7, i32 0, i32 0, !dbg !1557
  store ptr %self.05, ptr %34, align 8, !dbg !1557
  %35 = getelementptr inbounds { ptr, i64 }, ptr %self.dbg.spill7, i32 0, i32 1, !dbg !1557
  store i64 %self.16, ptr %35, align 8, !dbg !1557
  call void @llvm.dbg.declare(metadata ptr %self.dbg.spill7, metadata !1553, metadata !DIExpression()), !dbg !1638
  store i64 %n, ptr %index, align 8, !dbg !1639
  %_51 = load i64, ptr %index, align 8, !dbg !1640, !noundef !28
; invoke <core::ops::range::RangeFrom<usize> as core::slice::index::SliceIndex<[T]>>::index
  %36 = invoke { ptr, i64 } @"_ZN110_$LT$core..ops..range..RangeFrom$LT$usize$GT$$u20$as$u20$core..slice..index..SliceIndex$LT$$u5b$T$u5d$$GT$$GT$5index17hbcbf54748e9eac81E"(i64 %_51, ptr align 1 %self.05, i64 %self.16, ptr align 8 @alloc290)
          to label %bb23 unwind label %cleanup, !dbg !1640

bb23:                                             ; preds = %bb7
  %_16.0 = extractvalue { ptr, i64 } %36, 0, !dbg !1640
  %_16.1 = extractvalue { ptr, i64 } %36, 1, !dbg !1640
  %37 = getelementptr inbounds { ptr, i64 }, ptr %buf, i32 0, i32 0, !dbg !1641
  store ptr %_16.0, ptr %37, align 8, !dbg !1641
  %38 = getelementptr inbounds { ptr, i64 }, ptr %buf, i32 0, i32 1, !dbg !1641
  store i64 %_16.1, ptr %38, align 8, !dbg !1641
  br label %bb19, !dbg !1642

bb20:                                             ; preds = %bb22
  br i1 true, label %bb21, label %bb15, !dbg !1581

bb15:                                             ; preds = %bb21, %bb20, %bb22
  %39 = load ptr, ptr %2, align 8, !dbg !1643, !noundef !28
  %40 = getelementptr inbounds { ptr, i32 }, ptr %2, i32 0, i32 1, !dbg !1643
  %41 = load i32, ptr %40, align 8, !dbg !1643, !noundef !28
  %42 = insertvalue { ptr, i32 } undef, ptr %39, 0, !dbg !1643
  %43 = insertvalue { ptr, i32 } %42, i32 %41, 1, !dbg !1643
  resume { ptr, i32 } %43, !dbg !1643

bb21:                                             ; preds = %bb20
  %44 = getelementptr inbounds %"core::result::Result<usize, std::io::error::Error>::Err", ptr %_6, i32 0, i32 1, !dbg !1581
; invoke core::ptr::drop_in_place<std::io::error::Error>
  invoke void @"_ZN4core3ptr42drop_in_place$LT$std..io..error..Error$GT$17hd38d444766635b09E"(ptr %44) #22
          to label %bb15 unwind label %abort, !dbg !1581

abort:                                            ; preds = %bb21
  %45 = landingpad { ptr, i32 }
          cleanup, !dbg !1643
  %46 = extractvalue { ptr, i32 } %45, 0, !dbg !1643
  %47 = extractvalue { ptr, i32 } %45, 1, !dbg !1643
; call core::panicking::panic_cannot_unwind
  call void @_ZN4core9panicking19panic_cannot_unwind17h42344709dec62f2eE() #23, !dbg !1643
  unreachable, !dbg !1643

bb17:                                             ; preds = %bb19
  br i1 true, label %bb18, label %bb16, !dbg !1581

bb16:                                             ; preds = %bb18, %bb17, %bb19
  br label %bb1, !dbg !1559

bb18:                                             ; preds = %bb17
  %48 = getelementptr inbounds %"core::result::Result<usize, std::io::error::Error>::Err", ptr %_6, i32 0, i32 1, !dbg !1581
; call core::ptr::drop_in_place<std::io::error::Error>
  call void @"_ZN4core3ptr42drop_in_place$LT$std..io..error..Error$GT$17hd38d444766635b09E"(ptr %48), !dbg !1581
  br label %bb16, !dbg !1581

bb14:                                             ; preds = %bb12, %bb13
  %49 = load ptr, ptr %3, align 8, !dbg !1574, !noundef !28
  ret ptr %49, !dbg !1574
}

; std::io::Write::write_fmt
; Function Attrs: nonlazybind uwtable
define internal ptr @_ZN3std2io5Write9write_fmt17h01a331f6b17c0746E(ptr align 1 %self, ptr %fmt) unnamed_addr #0 personality ptr @rust_eh_personality !dbg !1644 {
start:
  %ptr.dbg.spill = alloca ptr, align 8
  %m.dbg.spill = alloca ptr, align 8
  %msg.dbg.spill = alloca ptr, align 8
  %self.dbg.spill2 = alloca ptr, align 8
  %self.dbg.spill1 = alloca ptr, align 8
  %0 = alloca { ptr, i32 }, align 8
  %self.dbg.spill = alloca ptr, align 8
  %_24 = alloca ptr, align 8
  %_22 = alloca ptr, align 8
  %_19 = alloca i8, align 1
  %_18 = alloca i8, align 1
  %_14 = alloca ptr, align 8
  %_10 = alloca %"core::fmt::Arguments<'_>", align 8
  %_6 = alloca i8, align 1
  %_5 = alloca ptr, align 8
  %output = alloca { ptr, ptr }, align 8
  %1 = alloca ptr, align 8
  store ptr %self, ptr %self.dbg.spill, align 8
  call void @llvm.dbg.declare(metadata ptr %self.dbg.spill, metadata !1760, metadata !DIExpression()), !dbg !1764
  call void @llvm.dbg.declare(metadata ptr %fmt, metadata !1761, metadata !DIExpression()), !dbg !1765
  call void @llvm.dbg.declare(metadata ptr %output, metadata !1762, metadata !DIExpression()), !dbg !1766
  store ptr null, ptr %_5, align 8, !dbg !1767
  store i8 1, ptr %_18, align 1, !dbg !1768
  %2 = getelementptr inbounds { ptr, ptr }, ptr %output, i32 0, i32 1, !dbg !1768
  store ptr %self, ptr %2, align 8, !dbg !1768
  %3 = load ptr, ptr %_5, align 8, !dbg !1768, !noundef !28
  store ptr %3, ptr %output, align 8, !dbg !1768
  call void @llvm.memcpy.p0.p0.i64(ptr align 8 %_10, ptr align 8 %fmt, i64 48, i1 false), !dbg !1769
; invoke core::fmt::write
  %4 = invoke zeroext i1 @_ZN4core3fmt5write17h93e2f5923c7eca08E(ptr align 1 %output, ptr align 8 @vtable.0, ptr %_10)
          to label %bb1 unwind label %cleanup, !dbg !1770

bb8:                                              ; preds = %cleanup
; invoke core::ptr::drop_in_place<std::io::Write::write_fmt::Adapter<std::sys::unix::stdio::Stderr>>
  invoke void @"_ZN4core3ptr92drop_in_place$LT$std..io..Write..write_fmt..Adapter$LT$std..sys..unix..stdio..Stderr$GT$$GT$17h03c884d4cfae8012E"(ptr %output) #22
          to label %bb9 unwind label %abort, !dbg !1771

cleanup:                                          ; preds = %start
  %5 = landingpad { ptr, i32 }
          cleanup
  %6 = extractvalue { ptr, i32 } %5, 0
  %7 = extractvalue { ptr, i32 } %5, 1
  %8 = getelementptr inbounds { ptr, i32 }, ptr %0, i32 0, i32 0
  store ptr %6, ptr %8, align 8
  %9 = getelementptr inbounds { ptr, i32 }, ptr %0, i32 0, i32 1
  store i32 %7, ptr %9, align 8
  br label %bb8

bb1:                                              ; preds = %start
  %10 = zext i1 %4 to i8, !dbg !1770
  store i8 %10, ptr %_6, align 1, !dbg !1770
  %11 = load i8, ptr %_6, align 1, !dbg !1770, !range !1772, !noundef !28
  %12 = trunc i8 %11 to i1, !dbg !1770
  %_11 = zext i1 %12 to i64, !dbg !1770
  %13 = icmp eq i64 %_11, 0, !dbg !1773
  br i1 %13, label %bb4, label %bb2, !dbg !1773

abort:                                            ; preds = %bb8
  %14 = landingpad { ptr, i32 }
          cleanup, !dbg !1774
  %15 = extractvalue { ptr, i32 } %14, 0, !dbg !1774
  %16 = extractvalue { ptr, i32 } %14, 1, !dbg !1774
; call core::panicking::panic_cannot_unwind
  call void @_ZN4core9panicking19panic_cannot_unwind17h42344709dec62f2eE() #23, !dbg !1774
  unreachable, !dbg !1774

bb9:                                              ; preds = %bb8
  %17 = load ptr, ptr %0, align 8, !dbg !1774, !noundef !28
  %18 = getelementptr inbounds { ptr, i32 }, ptr %0, i32 0, i32 1, !dbg !1774
  %19 = load i32, ptr %18, align 8, !dbg !1774, !noundef !28
  %20 = insertvalue { ptr, i32 } undef, ptr %17, 0, !dbg !1774
  %21 = insertvalue { ptr, i32 } %20, i32 %19, 1, !dbg !1774
  resume { ptr, i32 } %21, !dbg !1774

bb4:                                              ; preds = %bb1
  store ptr null, ptr %1, align 8, !dbg !1775
  br label %bb12, !dbg !1776

bb2:                                              ; preds = %bb1
  store ptr %output, ptr %self.dbg.spill1, align 8, !dbg !1777
  call void @llvm.dbg.declare(metadata ptr %self.dbg.spill1, metadata !1778, metadata !DIExpression()), !dbg !1785
  store ptr %output, ptr %self.dbg.spill2, align 8, !dbg !1787
  call void @llvm.dbg.declare(metadata ptr %self.dbg.spill2, metadata !1788, metadata !DIExpression()), !dbg !1791
  %22 = load ptr, ptr %output, align 8, !dbg !1793, !noundef !28
  %23 = ptrtoint ptr %22 to i64, !dbg !1793
  %24 = icmp eq i64 %23, 0, !dbg !1793
  %_21 = select i1 %24, i64 0, i64 1, !dbg !1793
  %25 = icmp eq i64 %_21, 0, !dbg !1794
  br i1 %25, label %bb15, label %bb14, !dbg !1794

bb3:                                              ; No predecessors!
  unreachable, !dbg !1770

bb15:                                             ; preds = %bb2
  store i8 1, ptr %_19, align 1, !dbg !1797
  br label %bb13, !dbg !1797

bb14:                                             ; preds = %bb2
  store i8 0, ptr %_19, align 1, !dbg !1798
  br label %bb13, !dbg !1798

bb13:                                             ; preds = %bb15, %bb14
  %26 = load i8, ptr %_19, align 1, !dbg !1799, !range !1772, !noundef !28
  %27 = trunc i8 %26 to i1, !dbg !1799
  %_12 = xor i1 %27, true, !dbg !1799
  br i1 %_12, label %bb5, label %bb6, !dbg !1777

bb6:                                              ; preds = %bb13
  store ptr @alloc44, ptr %msg.dbg.spill, align 8, !dbg !1800
  call void @llvm.dbg.declare(metadata ptr %msg.dbg.spill, metadata !1801, metadata !DIExpression()), !dbg !1804
  store ptr @alloc44, ptr %m.dbg.spill, align 8, !dbg !1807
  call void @llvm.dbg.declare(metadata ptr %m.dbg.spill, metadata !1808, metadata !DIExpression()), !dbg !1811
  store ptr @alloc44, ptr %ptr.dbg.spill, align 8, !dbg !1813
  call void @llvm.dbg.declare(metadata ptr %ptr.dbg.spill, metadata !1814, metadata !DIExpression()), !dbg !1817
  store ptr @alloc44, ptr %_24, align 8, !dbg !1819
  %28 = load ptr, ptr %_24, align 8, !dbg !1820, !nonnull !28, !noundef !28
  store ptr %28, ptr %_22, align 8, !dbg !1820
  %29 = load ptr, ptr %_22, align 8, !dbg !1821, !nonnull !28, !noundef !28
  store ptr %29, ptr %_14, align 8, !dbg !1821
  %30 = load ptr, ptr %_14, align 8, !dbg !1822, !nonnull !28, !noundef !28
  store ptr %30, ptr %1, align 8, !dbg !1822
  br label %bb7, !dbg !1823

bb5:                                              ; preds = %bb13
  store i8 0, ptr %_18, align 1, !dbg !1824
  %31 = load ptr, ptr %output, align 8, !dbg !1824, !noundef !28
  store ptr %31, ptr %1, align 8, !dbg !1824
  br label %bb7, !dbg !1823

bb7:                                              ; preds = %bb6, %bb5
  br label %bb12, !dbg !1825

bb12:                                             ; preds = %bb4, %bb7
  %32 = load i8, ptr %_18, align 1, !dbg !1771, !range !1772, !noundef !28
  %33 = trunc i8 %32 to i1, !dbg !1771
  br i1 %33, label %bb11, label %bb10, !dbg !1771

bb10:                                             ; preds = %bb11, %bb12
  %34 = load ptr, ptr %1, align 8, !dbg !1826, !noundef !28
  ret ptr %34, !dbg !1826

bb11:                                             ; preds = %bb12
; call core::ptr::drop_in_place<core::result::Result<(),std::io::error::Error>>
  call void @"_ZN4core3ptr81drop_in_place$LT$core..result..Result$LT$$LP$$RP$$C$std..io..error..Error$GT$$GT$17ha252e82ab6166341E"(ptr %output), !dbg !1771
  br label %bb10, !dbg !1771
}

; std::io::error::repr_bitpacked::decode_repr
; Function Attrs: inlinehint nonlazybind uwtable
define internal void @_ZN3std2io5error14repr_bitpacked11decode_repr17h02b4515d2b2751eaE(ptr sret(%"std::io::error::ErrorData<alloc::boxed::Box<std::io::error::Custom>>") %0, ptr %ptr) unnamed_addr #1 personality ptr @rust_eh_personality !dbg !1827 {
start:
  %code.dbg.spill = alloca i32, align 4
  %x.dbg.spill = alloca i8, align 1
  %kind_bits.dbg.spill = alloca i32, align 4
  %ptr.dbg.spill14 = alloca ptr, align 8
  %self.dbg.spill13 = alloca ptr, align 8
  %self.dbg.spill12 = alloca ptr, align 8
  %custom.dbg.spill = alloca ptr, align 8
  %self.dbg.spill11 = alloca ptr, align 8
  %data_address.dbg.spill = alloca ptr, align 8
  %self.dbg.spill9 = alloca ptr, align 8
  %1 = alloca ptr, align 8
  %self.dbg.spill8 = alloca ptr, align 8
  %self.dbg.spill7 = alloca ptr, align 8
  %self.dbg.spill6 = alloca ptr, align 8
  %self.dbg.spill5 = alloca ptr, align 8
  %self.dbg.spill4 = alloca ptr, align 8
  %2 = alloca { ptr, i32 }, align 8
  %self.dbg.spill3 = alloca ptr, align 8
  %self.dbg.spill2 = alloca ptr, align 8
  %self.dbg.spill = alloca ptr, align 8
  %metadata.dbg.spill = alloca {}, align 1
  %make_custom.dbg.spill = alloca %"[closure@<std::io::error::repr_bitpacked::Repr as core::ops::drop::Drop>::drop::{closure#0}]", align 1
  %ptr.dbg.spill = alloca ptr, align 8
  %_80 = alloca %"core::ptr::metadata::PtrComponents<()>", align 8
  %_79 = alloca %"core::ptr::metadata::PtrRepr<()>", align 8
  %_36 = alloca i8, align 1
  %_33 = alloca ptr, align 8
  %self1 = alloca ptr, align 8
  %f = alloca ptr, align 8
  %self = alloca i8, align 1
  %kind = alloca i8, align 1
  %bits = alloca i64, align 8
  store ptr %ptr, ptr %ptr.dbg.spill, align 8
  call void @llvm.dbg.declare(metadata ptr %ptr.dbg.spill, metadata !1834, metadata !DIExpression()), !dbg !1849
  call void @llvm.dbg.declare(metadata ptr %make_custom.dbg.spill, metadata !1835, metadata !DIExpression()), !dbg !1850
  call void @llvm.dbg.declare(metadata ptr %bits, metadata !1836, metadata !DIExpression()), !dbg !1851
  call void @llvm.dbg.declare(metadata ptr %kind, metadata !1842, metadata !DIExpression()), !dbg !1852
  call void @llvm.dbg.declare(metadata ptr %self, metadata !1853, metadata !DIExpression()), !dbg !1881
  call void @llvm.dbg.declare(metadata ptr %f, metadata !1876, metadata !DIExpression()), !dbg !1883
  call void @llvm.dbg.declare(metadata ptr %self1, metadata !1884, metadata !DIExpression()), !dbg !1896
  call void @llvm.dbg.declare(metadata ptr %metadata.dbg.spill, metadata !1898, metadata !DIExpression()), !dbg !1904
  store i8 1, ptr %_36, align 1, !dbg !1920
  store ptr %ptr, ptr %self.dbg.spill, align 8, !dbg !1921
  call void @llvm.dbg.declare(metadata ptr %self.dbg.spill, metadata !1922, metadata !DIExpression()), !dbg !1927
  store ptr %ptr, ptr %self.dbg.spill2, align 8, !dbg !1929
  call void @llvm.dbg.declare(metadata ptr %self.dbg.spill2, metadata !1930, metadata !DIExpression()), !dbg !1935
  store ptr %ptr, ptr %self.dbg.spill3, align 8, !dbg !1937
  call void @llvm.dbg.declare(metadata ptr %self.dbg.spill3, metadata !1938, metadata !DIExpression()), !dbg !1944
  store ptr %ptr, ptr %bits, align 8, !dbg !1946
  br label %bb14, !dbg !1946

bb14:                                             ; preds = %start
  %_7 = load i64, ptr %bits, align 8, !dbg !1947, !noundef !28
  %_6 = and i64 %_7, 3, !dbg !1947
  switch i64 %_6, label %bb1 [
    i64 2, label %bb2
    i64 3, label %bb3
    i64 0, label %bb5
    i64 1, label %bb6
  ], !dbg !1948

bb1:                                              ; preds = %bb14
; invoke core::panicking::panic
  invoke void @_ZN4core9panicking5panic17h90931f06a97cc5e0E(ptr align 1 @alloc299, i64 40, ptr align 8 @alloc298) #21
          to label %unreachable unwind label %cleanup, !dbg !1949

bb2:                                              ; preds = %bb14
  %_11 = load i64, ptr %bits, align 8, !dbg !1950, !noundef !28
  %_9 = ashr i64 %_11, 32, !dbg !1951
  %code = trunc i64 %_9 to i32, !dbg !1951
  store i32 %code, ptr %code.dbg.spill, align 4, !dbg !1951
  call void @llvm.dbg.declare(metadata ptr %code.dbg.spill, metadata !1838, metadata !DIExpression()), !dbg !1952
  %3 = getelementptr inbounds %"std::io::error::ErrorData<alloc::boxed::Box<std::io::error::Custom>>::Os", ptr %0, i32 0, i32 1, !dbg !1953
  store i32 %code, ptr %3, align 4, !dbg !1953
  store i8 0, ptr %0, align 8, !dbg !1953
  br label %bb8, !dbg !1954

bb3:                                              ; preds = %bb14
  %_15 = load i64, ptr %bits, align 8, !dbg !1955, !noundef !28
  %_14 = lshr i64 %_15, 32, !dbg !1956
  %kind_bits = trunc i64 %_14 to i32, !dbg !1956
  store i32 %kind_bits, ptr %kind_bits.dbg.spill, align 4, !dbg !1956
  call void @llvm.dbg.declare(metadata ptr %kind_bits.dbg.spill, metadata !1840, metadata !DIExpression()), !dbg !1957
; invoke std::io::error::repr_bitpacked::kind_from_prim
  %4 = invoke i8 @_ZN3std2io5error14repr_bitpacked14kind_from_prim17h56822b46de514b3dE(i32 %kind_bits)
          to label %bb4 unwind label %cleanup, !dbg !1958, !range !1959

bb5:                                              ; preds = %bb14
  store ptr %ptr, ptr %self.dbg.spill12, align 8, !dbg !1960
  call void @llvm.dbg.declare(metadata ptr %self.dbg.spill12, metadata !1961, metadata !DIExpression()), !dbg !1968
  store ptr %ptr, ptr %self.dbg.spill13, align 8, !dbg !1970
  call void @llvm.dbg.declare(metadata ptr %self.dbg.spill13, metadata !1971, metadata !DIExpression()), !dbg !1974
  store ptr %ptr, ptr %ptr.dbg.spill14, align 8, !dbg !1970
  call void @llvm.dbg.declare(metadata ptr %ptr.dbg.spill14, metadata !1976, metadata !DIExpression()), !dbg !1981
  store ptr %ptr, ptr %self1, align 8, !dbg !1983
  %_57 = load ptr, ptr %self1, align 8, !dbg !1984, !noundef !28
  %5 = getelementptr inbounds %"std::io::error::ErrorData<alloc::boxed::Box<std::io::error::Custom>>::SimpleMessage", ptr %0, i32 0, i32 1, !dbg !1985
  store ptr %_57, ptr %5, align 8, !dbg !1985
  store i8 2, ptr %0, align 8, !dbg !1985
  br label %bb8, !dbg !1986

bb6:                                              ; preds = %bb14
  store ptr %ptr, ptr %self.dbg.spill4, align 8, !dbg !1987
  call void @llvm.dbg.declare(metadata ptr %self.dbg.spill4, metadata !1988, metadata !DIExpression()), !dbg !1991
  store ptr %ptr, ptr %self.dbg.spill5, align 8, !dbg !1993
  call void @llvm.dbg.declare(metadata ptr %self.dbg.spill5, metadata !1917, metadata !DIExpression()), !dbg !1994
  store ptr %ptr, ptr %self.dbg.spill6, align 8, !dbg !1995
  call void @llvm.dbg.declare(metadata ptr %self.dbg.spill6, metadata !1996, metadata !DIExpression()), !dbg !2003
  store ptr %ptr, ptr %self.dbg.spill7, align 8, !dbg !2005
  call void @llvm.dbg.declare(metadata ptr %self.dbg.spill7, metadata !2006, metadata !DIExpression()), !dbg !2010
  store ptr %ptr, ptr %self.dbg.spill8, align 8, !dbg !2012
  call void @llvm.dbg.declare(metadata ptr %self.dbg.spill8, metadata !2013, metadata !DIExpression()), !dbg !2017
  %6 = getelementptr i8, ptr %ptr, i64 -1, !dbg !2019
  store ptr %6, ptr %1, align 8, !dbg !2019
  %_71 = load ptr, ptr %1, align 8, !dbg !2019, !noundef !28
  br label %bb20, !dbg !2019

bb13:                                             ; preds = %cleanup
  %7 = load i8, ptr %_36, align 1, !dbg !2020, !range !1772, !noundef !28
  %8 = trunc i8 %7 to i1, !dbg !2020
  br i1 %8, label %bb12, label %bb10, !dbg !2020

cleanup:                                          ; preds = %bb15, %bb3, %bb20, %bb1
  %9 = landingpad { ptr, i32 }
          cleanup
  %10 = extractvalue { ptr, i32 } %9, 0
  %11 = extractvalue { ptr, i32 } %9, 1
  %12 = getelementptr inbounds { ptr, i32 }, ptr %2, i32 0, i32 0
  store ptr %10, ptr %12, align 8
  %13 = getelementptr inbounds { ptr, i32 }, ptr %2, i32 0, i32 1
  store i32 %11, ptr %13, align 8
  br label %bb13

unreachable:                                      ; preds = %bb1
  unreachable

bb20:                                             ; preds = %bb6
  store ptr %_71, ptr %self.dbg.spill9, align 8, !dbg !2019
  call void @llvm.dbg.declare(metadata ptr %self.dbg.spill9, metadata !1910, metadata !DIExpression()), !dbg !2021
  store ptr %_71, ptr %data_address.dbg.spill, align 8, !dbg !2022
  call void @llvm.dbg.declare(metadata ptr %data_address.dbg.spill, metadata !1903, metadata !DIExpression()), !dbg !2023
  store ptr %_71, ptr %_80, align 8, !dbg !2024
  call void @llvm.memcpy.p0.p0.i64(ptr align 8 %_79, ptr align 8 %_80, i64 8, i1 false), !dbg !2025
  %self10 = load ptr, ptr %_79, align 8, !dbg !2025, !noundef !28
  store ptr %self10, ptr %self.dbg.spill11, align 8, !dbg !2025
  call void @llvm.dbg.declare(metadata ptr %self.dbg.spill11, metadata !2026, metadata !DIExpression()), !dbg !2033
  store ptr %self10, ptr %custom.dbg.spill, align 8, !dbg !2035
  call void @llvm.dbg.declare(metadata ptr %custom.dbg.spill, metadata !1844, metadata !DIExpression()), !dbg !2036
  store i8 0, ptr %_36, align 1, !dbg !2037
  store ptr %self10, ptr %_33, align 8, !dbg !2037
  %14 = load ptr, ptr %_33, align 8, !dbg !2037, !noundef !28
; invoke <std::io::error::repr_bitpacked::Repr as core::ops::drop::Drop>::drop::{{closure}}
  %_31 = invoke align 8 ptr @"_ZN78_$LT$std..io..error..repr_bitpacked..Repr$u20$as$u20$core..ops..drop..Drop$GT$4drop28_$u7b$$u7b$closure$u7d$$u7d$17h47276a104baf3c90E"(ptr %14)
          to label %bb7 unwind label %cleanup, !dbg !2037

bb7:                                              ; preds = %bb20
  %15 = getelementptr inbounds %"std::io::error::ErrorData<alloc::boxed::Box<std::io::error::Custom>>::Custom", ptr %0, i32 0, i32 1, !dbg !2038
  store ptr %_31, ptr %15, align 8, !dbg !2038
  store i8 3, ptr %0, align 8, !dbg !2038
  br label %bb8, !dbg !2039

bb8:                                              ; preds = %bb2, %bb19, %bb5, %bb7
  %16 = load i8, ptr %_36, align 1, !dbg !2020, !range !1772, !noundef !28
  %17 = trunc i8 %16 to i1, !dbg !2020
  br i1 %17, label %bb11, label %bb9, !dbg !2020

bb4:                                              ; preds = %bb3
  store i8 %4, ptr %self, align 1, !dbg !1958
  store ptr %bits, ptr %f, align 8, !dbg !2040
  %18 = load i8, ptr %self, align 1, !dbg !2041, !range !1959, !noundef !28
  %19 = icmp eq i8 %18, 41, !dbg !2041
  %_41 = select i1 %19, i64 0, i64 1, !dbg !2041
  %20 = icmp eq i64 %_41, 0, !dbg !2042
  br i1 %20, label %bb15, label %bb17, !dbg !2042

bb15:                                             ; preds = %bb4
  %_43 = load ptr, ptr %f, align 8, !dbg !2043, !nonnull !28, !align !1389, !noundef !28
; invoke std::io::error::repr_bitpacked::decode_repr::{{closure}}
  %21 = invoke i8 @"_ZN3std2io5error14repr_bitpacked11decode_repr28_$u7b$$u7b$closure$u7d$$u7d$17h5cf1616935ae2a06E"(ptr align 8 %_43)
          to label %bb18 unwind label %cleanup, !dbg !2043, !range !1580

bb17:                                             ; preds = %bb4
  %x = load i8, ptr %self, align 1, !dbg !2044, !range !1580, !noundef !28
  store i8 %x, ptr %x.dbg.spill, align 1, !dbg !2044
  call void @llvm.dbg.declare(metadata ptr %x.dbg.spill, metadata !1877, metadata !DIExpression()), !dbg !2045
  store i8 %x, ptr %kind, align 1, !dbg !2046
  br label %bb19, !dbg !2047

bb16:                                             ; No predecessors!
  unreachable, !dbg !2041

bb19:                                             ; preds = %bb18, %bb17
  %_21 = load i8, ptr %kind, align 1, !dbg !2048, !range !1580, !noundef !28
  %22 = getelementptr inbounds %"std::io::error::ErrorData<alloc::boxed::Box<std::io::error::Custom>>::Simple", ptr %0, i32 0, i32 1, !dbg !2049
  store i8 %_21, ptr %22, align 1, !dbg !2049
  store i8 1, ptr %0, align 8, !dbg !2049
  br label %bb8, !dbg !2050

bb18:                                             ; preds = %bb15
  store i8 %21, ptr %kind, align 1, !dbg !2043
  br label %bb19, !dbg !2051

bb10:                                             ; preds = %bb12, %bb13
  %23 = load ptr, ptr %2, align 8, !dbg !2052, !noundef !28
  %24 = getelementptr inbounds { ptr, i32 }, ptr %2, i32 0, i32 1, !dbg !2052
  %25 = load i32, ptr %24, align 8, !dbg !2052, !noundef !28
  %26 = insertvalue { ptr, i32 } undef, ptr %23, 0, !dbg !2052
  %27 = insertvalue { ptr, i32 } %26, i32 %25, 1, !dbg !2052
  resume { ptr, i32 } %27, !dbg !2052

bb12:                                             ; preds = %bb13
  br label %bb10, !dbg !2020

bb9:                                              ; preds = %bb11, %bb8
  ret void, !dbg !2053

bb11:                                             ; preds = %bb8
  br label %bb9, !dbg !2020
}

; std::io::error::repr_bitpacked::decode_repr
; Function Attrs: inlinehint nonlazybind uwtable
define internal void @_ZN3std2io5error14repr_bitpacked11decode_repr17he0cb88178d036a7bE(ptr sret(%"std::io::error::ErrorData<&std::io::error::Custom>") %0, ptr %ptr) unnamed_addr #1 personality ptr @rust_eh_personality !dbg !2054 {
start:
  %code.dbg.spill = alloca i32, align 4
  %x.dbg.spill = alloca i8, align 1
  %kind_bits.dbg.spill = alloca i32, align 4
  %ptr.dbg.spill14 = alloca ptr, align 8
  %self.dbg.spill13 = alloca ptr, align 8
  %self.dbg.spill12 = alloca ptr, align 8
  %custom.dbg.spill = alloca ptr, align 8
  %self.dbg.spill11 = alloca ptr, align 8
  %data_address.dbg.spill = alloca ptr, align 8
  %self.dbg.spill9 = alloca ptr, align 8
  %1 = alloca ptr, align 8
  %self.dbg.spill8 = alloca ptr, align 8
  %self.dbg.spill7 = alloca ptr, align 8
  %self.dbg.spill6 = alloca ptr, align 8
  %self.dbg.spill5 = alloca ptr, align 8
  %self.dbg.spill4 = alloca ptr, align 8
  %2 = alloca { ptr, i32 }, align 8
  %self.dbg.spill3 = alloca ptr, align 8
  %self.dbg.spill2 = alloca ptr, align 8
  %self.dbg.spill = alloca ptr, align 8
  %metadata.dbg.spill = alloca {}, align 1
  %make_custom.dbg.spill = alloca %"[closure@std::io::error::repr_bitpacked::Repr::data::{closure#0}]", align 1
  %ptr.dbg.spill = alloca ptr, align 8
  %_80 = alloca %"core::ptr::metadata::PtrComponents<()>", align 8
  %_79 = alloca %"core::ptr::metadata::PtrRepr<()>", align 8
  %_36 = alloca i8, align 1
  %_33 = alloca ptr, align 8
  %self1 = alloca ptr, align 8
  %f = alloca ptr, align 8
  %self = alloca i8, align 1
  %kind = alloca i8, align 1
  %bits = alloca i64, align 8
  store ptr %ptr, ptr %ptr.dbg.spill, align 8
  call void @llvm.dbg.declare(metadata ptr %ptr.dbg.spill, metadata !2085, metadata !DIExpression()), !dbg !2099
  call void @llvm.dbg.declare(metadata ptr %make_custom.dbg.spill, metadata !2086, metadata !DIExpression()), !dbg !2100
  call void @llvm.dbg.declare(metadata ptr %bits, metadata !2087, metadata !DIExpression()), !dbg !2101
  call void @llvm.dbg.declare(metadata ptr %kind, metadata !2093, metadata !DIExpression()), !dbg !2102
  call void @llvm.dbg.declare(metadata ptr %self, metadata !2103, metadata !DIExpression()), !dbg !2116
  call void @llvm.dbg.declare(metadata ptr %f, metadata !2111, metadata !DIExpression()), !dbg !2118
  call void @llvm.dbg.declare(metadata ptr %self1, metadata !2119, metadata !DIExpression()), !dbg !2122
  call void @llvm.dbg.declare(metadata ptr %metadata.dbg.spill, metadata !2124, metadata !DIExpression()), !dbg !2128
  store i8 1, ptr %_36, align 1, !dbg !2140
  store ptr %ptr, ptr %self.dbg.spill, align 8, !dbg !2141
  call void @llvm.dbg.declare(metadata ptr %self.dbg.spill, metadata !2142, metadata !DIExpression()), !dbg !2145
  store ptr %ptr, ptr %self.dbg.spill2, align 8, !dbg !2147
  call void @llvm.dbg.declare(metadata ptr %self.dbg.spill2, metadata !2148, metadata !DIExpression()), !dbg !2151
  store ptr %ptr, ptr %self.dbg.spill3, align 8, !dbg !2153
  call void @llvm.dbg.declare(metadata ptr %self.dbg.spill3, metadata !2154, metadata !DIExpression()), !dbg !2157
  store ptr %ptr, ptr %bits, align 8, !dbg !2159
  br label %bb14, !dbg !2159

bb14:                                             ; preds = %start
  %_7 = load i64, ptr %bits, align 8, !dbg !2160, !noundef !28
  %_6 = and i64 %_7, 3, !dbg !2160
  switch i64 %_6, label %bb1 [
    i64 2, label %bb2
    i64 3, label %bb3
    i64 0, label %bb5
    i64 1, label %bb6
  ], !dbg !2161

bb1:                                              ; preds = %bb14
; invoke core::panicking::panic
  invoke void @_ZN4core9panicking5panic17h90931f06a97cc5e0E(ptr align 1 @alloc299, i64 40, ptr align 8 @alloc298) #21
          to label %unreachable unwind label %cleanup, !dbg !2162

bb2:                                              ; preds = %bb14
  %_11 = load i64, ptr %bits, align 8, !dbg !2163, !noundef !28
  %_9 = ashr i64 %_11, 32, !dbg !2164
  %code = trunc i64 %_9 to i32, !dbg !2164
  store i32 %code, ptr %code.dbg.spill, align 4, !dbg !2164
  call void @llvm.dbg.declare(metadata ptr %code.dbg.spill, metadata !2089, metadata !DIExpression()), !dbg !2165
  %3 = getelementptr inbounds %"std::io::error::ErrorData<&std::io::error::Custom>::Os", ptr %0, i32 0, i32 1, !dbg !2166
  store i32 %code, ptr %3, align 4, !dbg !2166
  store i8 0, ptr %0, align 8, !dbg !2166
  br label %bb8, !dbg !2167

bb3:                                              ; preds = %bb14
  %_15 = load i64, ptr %bits, align 8, !dbg !2168, !noundef !28
  %_14 = lshr i64 %_15, 32, !dbg !2169
  %kind_bits = trunc i64 %_14 to i32, !dbg !2169
  store i32 %kind_bits, ptr %kind_bits.dbg.spill, align 4, !dbg !2169
  call void @llvm.dbg.declare(metadata ptr %kind_bits.dbg.spill, metadata !2091, metadata !DIExpression()), !dbg !2170
; invoke std::io::error::repr_bitpacked::kind_from_prim
  %4 = invoke i8 @_ZN3std2io5error14repr_bitpacked14kind_from_prim17h56822b46de514b3dE(i32 %kind_bits)
          to label %bb4 unwind label %cleanup, !dbg !2171, !range !1959

bb5:                                              ; preds = %bb14
  store ptr %ptr, ptr %self.dbg.spill12, align 8, !dbg !2172
  call void @llvm.dbg.declare(metadata ptr %self.dbg.spill12, metadata !2173, metadata !DIExpression()), !dbg !2176
  store ptr %ptr, ptr %self.dbg.spill13, align 8, !dbg !2178
  call void @llvm.dbg.declare(metadata ptr %self.dbg.spill13, metadata !2179, metadata !DIExpression()), !dbg !2182
  store ptr %ptr, ptr %ptr.dbg.spill14, align 8, !dbg !2178
  call void @llvm.dbg.declare(metadata ptr %ptr.dbg.spill14, metadata !2184, metadata !DIExpression()), !dbg !2187
  store ptr %ptr, ptr %self1, align 8, !dbg !2189
  %_57 = load ptr, ptr %self1, align 8, !dbg !2190, !noundef !28
  %5 = getelementptr inbounds %"std::io::error::ErrorData<&std::io::error::Custom>::SimpleMessage", ptr %0, i32 0, i32 1, !dbg !2191
  store ptr %_57, ptr %5, align 8, !dbg !2191
  store i8 2, ptr %0, align 8, !dbg !2191
  br label %bb8, !dbg !2192

bb6:                                              ; preds = %bb14
  store ptr %ptr, ptr %self.dbg.spill4, align 8, !dbg !2193
  call void @llvm.dbg.declare(metadata ptr %self.dbg.spill4, metadata !2194, metadata !DIExpression()), !dbg !2197
  store ptr %ptr, ptr %self.dbg.spill5, align 8, !dbg !2199
  call void @llvm.dbg.declare(metadata ptr %self.dbg.spill5, metadata !2137, metadata !DIExpression()), !dbg !2200
  store ptr %ptr, ptr %self.dbg.spill6, align 8, !dbg !2201
  call void @llvm.dbg.declare(metadata ptr %self.dbg.spill6, metadata !2202, metadata !DIExpression()), !dbg !2205
  store ptr %ptr, ptr %self.dbg.spill7, align 8, !dbg !2207
  call void @llvm.dbg.declare(metadata ptr %self.dbg.spill7, metadata !2208, metadata !DIExpression()), !dbg !2212
  store ptr %ptr, ptr %self.dbg.spill8, align 8, !dbg !2214
  call void @llvm.dbg.declare(metadata ptr %self.dbg.spill8, metadata !2215, metadata !DIExpression()), !dbg !2219
  %6 = getelementptr i8, ptr %ptr, i64 -1, !dbg !2221
  store ptr %6, ptr %1, align 8, !dbg !2221
  %_71 = load ptr, ptr %1, align 8, !dbg !2221, !noundef !28
  br label %bb20, !dbg !2221

bb13:                                             ; preds = %cleanup
  %7 = load i8, ptr %_36, align 1, !dbg !2222, !range !1772, !noundef !28
  %8 = trunc i8 %7 to i1, !dbg !2222
  br i1 %8, label %bb12, label %bb10, !dbg !2222

cleanup:                                          ; preds = %bb15, %bb3, %bb20, %bb1
  %9 = landingpad { ptr, i32 }
          cleanup
  %10 = extractvalue { ptr, i32 } %9, 0
  %11 = extractvalue { ptr, i32 } %9, 1
  %12 = getelementptr inbounds { ptr, i32 }, ptr %2, i32 0, i32 0
  store ptr %10, ptr %12, align 8
  %13 = getelementptr inbounds { ptr, i32 }, ptr %2, i32 0, i32 1
  store i32 %11, ptr %13, align 8
  br label %bb13

unreachable:                                      ; preds = %bb1
  unreachable

bb20:                                             ; preds = %bb6
  store ptr %_71, ptr %self.dbg.spill9, align 8, !dbg !2221
  call void @llvm.dbg.declare(metadata ptr %self.dbg.spill9, metadata !2132, metadata !DIExpression()), !dbg !2223
  store ptr %_71, ptr %data_address.dbg.spill, align 8, !dbg !2224
  call void @llvm.dbg.declare(metadata ptr %data_address.dbg.spill, metadata !2127, metadata !DIExpression()), !dbg !2225
  store ptr %_71, ptr %_80, align 8, !dbg !2226
  call void @llvm.memcpy.p0.p0.i64(ptr align 8 %_79, ptr align 8 %_80, i64 8, i1 false), !dbg !2227
  %self10 = load ptr, ptr %_79, align 8, !dbg !2227, !noundef !28
  store ptr %self10, ptr %self.dbg.spill11, align 8, !dbg !2227
  call void @llvm.dbg.declare(metadata ptr %self.dbg.spill11, metadata !2228, metadata !DIExpression()), !dbg !2231
  store ptr %self10, ptr %custom.dbg.spill, align 8, !dbg !2233
  call void @llvm.dbg.declare(metadata ptr %custom.dbg.spill, metadata !2095, metadata !DIExpression()), !dbg !2234
  store i8 0, ptr %_36, align 1, !dbg !2235
  store ptr %self10, ptr %_33, align 8, !dbg !2235
  %14 = load ptr, ptr %_33, align 8, !dbg !2235, !noundef !28
; invoke std::io::error::repr_bitpacked::Repr::data::{{closure}}
  %_31 = invoke align 8 ptr @"_ZN3std2io5error14repr_bitpacked4Repr4data28_$u7b$$u7b$closure$u7d$$u7d$17h7cd7e89057abc69eE"(ptr %14)
          to label %bb7 unwind label %cleanup, !dbg !2235

bb7:                                              ; preds = %bb20
  %15 = getelementptr inbounds %"std::io::error::ErrorData<&std::io::error::Custom>::Custom", ptr %0, i32 0, i32 1, !dbg !2236
  store ptr %_31, ptr %15, align 8, !dbg !2236
  store i8 3, ptr %0, align 8, !dbg !2236
  br label %bb8, !dbg !2237

bb8:                                              ; preds = %bb2, %bb19, %bb5, %bb7
  %16 = load i8, ptr %_36, align 1, !dbg !2222, !range !1772, !noundef !28
  %17 = trunc i8 %16 to i1, !dbg !2222
  br i1 %17, label %bb11, label %bb9, !dbg !2222

bb4:                                              ; preds = %bb3
  store i8 %4, ptr %self, align 1, !dbg !2171
  store ptr %bits, ptr %f, align 8, !dbg !2238
  %18 = load i8, ptr %self, align 1, !dbg !2239, !range !1959, !noundef !28
  %19 = icmp eq i8 %18, 41, !dbg !2239
  %_41 = select i1 %19, i64 0, i64 1, !dbg !2239
  %20 = icmp eq i64 %_41, 0, !dbg !2240
  br i1 %20, label %bb15, label %bb17, !dbg !2240

bb15:                                             ; preds = %bb4
  %_43 = load ptr, ptr %f, align 8, !dbg !2241, !nonnull !28, !align !1389, !noundef !28
; invoke std::io::error::repr_bitpacked::decode_repr::{{closure}}
  %21 = invoke i8 @"_ZN3std2io5error14repr_bitpacked11decode_repr28_$u7b$$u7b$closure$u7d$$u7d$17hd9b3e387bd8fa833E"(ptr align 8 %_43)
          to label %bb18 unwind label %cleanup, !dbg !2241, !range !1580

bb17:                                             ; preds = %bb4
  %x = load i8, ptr %self, align 1, !dbg !2242, !range !1580, !noundef !28
  store i8 %x, ptr %x.dbg.spill, align 1, !dbg !2242
  call void @llvm.dbg.declare(metadata ptr %x.dbg.spill, metadata !2112, metadata !DIExpression()), !dbg !2243
  store i8 %x, ptr %kind, align 1, !dbg !2244
  br label %bb19, !dbg !2245

bb16:                                             ; No predecessors!
  unreachable, !dbg !2239

bb19:                                             ; preds = %bb18, %bb17
  %_21 = load i8, ptr %kind, align 1, !dbg !2246, !range !1580, !noundef !28
  %22 = getelementptr inbounds %"std::io::error::ErrorData<&std::io::error::Custom>::Simple", ptr %0, i32 0, i32 1, !dbg !2247
  store i8 %_21, ptr %22, align 1, !dbg !2247
  store i8 1, ptr %0, align 8, !dbg !2247
  br label %bb8, !dbg !2248

bb18:                                             ; preds = %bb15
  store i8 %21, ptr %kind, align 1, !dbg !2241
  br label %bb19, !dbg !2249

bb10:                                             ; preds = %bb12, %bb13
  %23 = load ptr, ptr %2, align 8, !dbg !2250, !noundef !28
  %24 = getelementptr inbounds { ptr, i32 }, ptr %2, i32 0, i32 1, !dbg !2250
  %25 = load i32, ptr %24, align 8, !dbg !2250, !noundef !28
  %26 = insertvalue { ptr, i32 } undef, ptr %23, 0, !dbg !2250
  %27 = insertvalue { ptr, i32 } %26, i32 %25, 1, !dbg !2250
  resume { ptr, i32 } %27, !dbg !2250

bb12:                                             ; preds = %bb13
  br label %bb10, !dbg !2222

bb9:                                              ; preds = %bb11, %bb8
  ret void, !dbg !2251

bb11:                                             ; preds = %bb8
  br label %bb9, !dbg !2222
}

; std::io::error::repr_bitpacked::decode_repr::{{closure}}
; Function Attrs: inlinehint nonlazybind uwtable
define internal i8 @"_ZN3std2io5error14repr_bitpacked11decode_repr28_$u7b$$u7b$closure$u7d$$u7d$17h5cf1616935ae2a06E"(ptr align 8 %_1) unnamed_addr #1 !dbg !2252 {
start:
  %_unsafe_arg.dbg.spill = alloca %"core::fmt::UnsafeArg", align 1
  %_1.dbg.spill = alloca ptr, align 8
  store ptr %_1, ptr %_1.dbg.spill, align 8
  call void @llvm.dbg.declare(metadata ptr %_1.dbg.spill, metadata !2256, metadata !DIExpression(DW_OP_deref)), !dbg !2257
  call void @llvm.dbg.declare(metadata ptr %_unsafe_arg.dbg.spill, metadata !2258, metadata !DIExpression()), !dbg !2270
; call core::hint::unreachable_unchecked
  call void @_ZN4core4hint21unreachable_unchecked17h6a8e14e74075a8e5E() #21, !dbg !2274
  unreachable, !dbg !2274
}

; std::io::error::repr_bitpacked::decode_repr::{{closure}}
; Function Attrs: inlinehint nonlazybind uwtable
define internal i8 @"_ZN3std2io5error14repr_bitpacked11decode_repr28_$u7b$$u7b$closure$u7d$$u7d$17hd9b3e387bd8fa833E"(ptr align 8 %_1) unnamed_addr #1 !dbg !2275 {
start:
  %_unsafe_arg.dbg.spill = alloca %"core::fmt::UnsafeArg", align 1
  %_1.dbg.spill = alloca ptr, align 8
  store ptr %_1, ptr %_1.dbg.spill, align 8
  call void @llvm.dbg.declare(metadata ptr %_1.dbg.spill, metadata !2279, metadata !DIExpression(DW_OP_deref)), !dbg !2280
  call void @llvm.dbg.declare(metadata ptr %_unsafe_arg.dbg.spill, metadata !2281, metadata !DIExpression()), !dbg !2287
; call core::hint::unreachable_unchecked
  call void @_ZN4core4hint21unreachable_unchecked17h6a8e14e74075a8e5E() #21, !dbg !2290
  unreachable, !dbg !2290
}

; std::io::error::repr_bitpacked::kind_from_prim
; Function Attrs: inlinehint nonlazybind uwtable
define internal i8 @_ZN3std2io5error14repr_bitpacked14kind_from_prim17h56822b46de514b3dE(i32 %0) unnamed_addr #1 !dbg !2291 {
start:
  %v.dbg.spill40 = alloca ptr, align 8
  %v.dbg.spill39 = alloca ptr, align 8
  %v.dbg.spill38 = alloca ptr, align 8
  %v.dbg.spill37 = alloca ptr, align 8
  %v.dbg.spill36 = alloca ptr, align 8
  %v.dbg.spill35 = alloca ptr, align 8
  %v.dbg.spill34 = alloca ptr, align 8
  %v.dbg.spill33 = alloca ptr, align 8
  %v.dbg.spill32 = alloca ptr, align 8
  %v.dbg.spill31 = alloca ptr, align 8
  %v.dbg.spill30 = alloca ptr, align 8
  %v.dbg.spill29 = alloca ptr, align 8
  %v.dbg.spill28 = alloca ptr, align 8
  %v.dbg.spill27 = alloca ptr, align 8
  %v.dbg.spill26 = alloca ptr, align 8
  %v.dbg.spill25 = alloca ptr, align 8
  %v.dbg.spill24 = alloca ptr, align 8
  %v.dbg.spill23 = alloca ptr, align 8
  %v.dbg.spill22 = alloca ptr, align 8
  %v.dbg.spill21 = alloca ptr, align 8
  %v.dbg.spill20 = alloca ptr, align 8
  %v.dbg.spill19 = alloca ptr, align 8
  %v.dbg.spill18 = alloca ptr, align 8
  %v.dbg.spill17 = alloca ptr, align 8
  %v.dbg.spill16 = alloca ptr, align 8
  %v.dbg.spill15 = alloca ptr, align 8
  %v.dbg.spill14 = alloca ptr, align 8
  %v.dbg.spill13 = alloca ptr, align 8
  %v.dbg.spill12 = alloca ptr, align 8
  %v.dbg.spill11 = alloca ptr, align 8
  %v.dbg.spill10 = alloca ptr, align 8
  %v.dbg.spill9 = alloca ptr, align 8
  %v.dbg.spill8 = alloca ptr, align 8
  %v.dbg.spill7 = alloca ptr, align 8
  %v.dbg.spill6 = alloca ptr, align 8
  %v.dbg.spill5 = alloca ptr, align 8
  %v.dbg.spill4 = alloca ptr, align 8
  %v.dbg.spill3 = alloca ptr, align 8
  %v.dbg.spill2 = alloca ptr, align 8
  %v.dbg.spill1 = alloca ptr, align 8
  %v.dbg.spill = alloca ptr, align 8
  %1 = alloca i8, align 1
  %ek = alloca i32, align 4
  store i32 %0, ptr %ek, align 4
  call void @llvm.dbg.declare(metadata ptr %ek, metadata !2295, metadata !DIExpression()), !dbg !2420
  store ptr %ek, ptr %v.dbg.spill, align 8, !dbg !2421
  call void @llvm.dbg.declare(metadata ptr %v.dbg.spill, metadata !2298, metadata !DIExpression()), !dbg !2422
  %_5 = load i32, ptr %ek, align 4, !dbg !2421, !noundef !28
  %_4 = icmp eq i32 %_5, 0, !dbg !2421
  br i1 %_4, label %bb1, label %bb2, !dbg !2421

bb2:                                              ; preds = %start
  store ptr %ek, ptr %v.dbg.spill1, align 8, !dbg !2421
  call void @llvm.dbg.declare(metadata ptr %v.dbg.spill1, metadata !2302, metadata !DIExpression()), !dbg !2423
  %_10 = load i32, ptr %ek, align 4, !dbg !2421, !noundef !28
  %_9 = icmp eq i32 %_10, 1, !dbg !2421
  br i1 %_9, label %bb3, label %bb4, !dbg !2421

bb1:                                              ; preds = %start
  store i8 0, ptr %1, align 1, !dbg !2422
  br label %bb83, !dbg !2421

bb83:                                             ; preds = %bb82, %bb81, %bb79, %bb77, %bb75, %bb73, %bb71, %bb69, %bb67, %bb65, %bb63, %bb61, %bb59, %bb57, %bb55, %bb53, %bb51, %bb49, %bb47, %bb45, %bb43, %bb41, %bb39, %bb37, %bb35, %bb33, %bb31, %bb29, %bb27, %bb25, %bb23, %bb21, %bb19, %bb17, %bb15, %bb13, %bb11, %bb9, %bb7, %bb5, %bb3, %bb1
  %2 = load i8, ptr %1, align 1, !dbg !2424, !range !1959, !noundef !28
  ret i8 %2, !dbg !2424

bb4:                                              ; preds = %bb2
  store ptr %ek, ptr %v.dbg.spill2, align 8, !dbg !2421
  call void @llvm.dbg.declare(metadata ptr %v.dbg.spill2, metadata !2305, metadata !DIExpression()), !dbg !2425
  %_15 = load i32, ptr %ek, align 4, !dbg !2421, !noundef !28
  %_14 = icmp eq i32 %_15, 2, !dbg !2421
  br i1 %_14, label %bb5, label %bb6, !dbg !2421

bb3:                                              ; preds = %bb2
  store i8 1, ptr %1, align 1, !dbg !2423
  br label %bb83, !dbg !2421

bb6:                                              ; preds = %bb4
  store ptr %ek, ptr %v.dbg.spill3, align 8, !dbg !2421
  call void @llvm.dbg.declare(metadata ptr %v.dbg.spill3, metadata !2308, metadata !DIExpression()), !dbg !2426
  %_20 = load i32, ptr %ek, align 4, !dbg !2421, !noundef !28
  %_19 = icmp eq i32 %_20, 3, !dbg !2421
  br i1 %_19, label %bb7, label %bb8, !dbg !2421

bb5:                                              ; preds = %bb4
  store i8 2, ptr %1, align 1, !dbg !2425
  br label %bb83, !dbg !2421

bb8:                                              ; preds = %bb6
  store ptr %ek, ptr %v.dbg.spill4, align 8, !dbg !2421
  call void @llvm.dbg.declare(metadata ptr %v.dbg.spill4, metadata !2311, metadata !DIExpression()), !dbg !2427
  %_25 = load i32, ptr %ek, align 4, !dbg !2421, !noundef !28
  %_24 = icmp eq i32 %_25, 4, !dbg !2421
  br i1 %_24, label %bb9, label %bb10, !dbg !2421

bb7:                                              ; preds = %bb6
  store i8 3, ptr %1, align 1, !dbg !2426
  br label %bb83, !dbg !2421

bb10:                                             ; preds = %bb8
  store ptr %ek, ptr %v.dbg.spill5, align 8, !dbg !2421
  call void @llvm.dbg.declare(metadata ptr %v.dbg.spill5, metadata !2314, metadata !DIExpression()), !dbg !2428
  %_30 = load i32, ptr %ek, align 4, !dbg !2421, !noundef !28
  %_29 = icmp eq i32 %_30, 5, !dbg !2421
  br i1 %_29, label %bb11, label %bb12, !dbg !2421

bb9:                                              ; preds = %bb8
  store i8 4, ptr %1, align 1, !dbg !2427
  br label %bb83, !dbg !2421

bb12:                                             ; preds = %bb10
  store ptr %ek, ptr %v.dbg.spill6, align 8, !dbg !2421
  call void @llvm.dbg.declare(metadata ptr %v.dbg.spill6, metadata !2317, metadata !DIExpression()), !dbg !2429
  %_35 = load i32, ptr %ek, align 4, !dbg !2421, !noundef !28
  %_34 = icmp eq i32 %_35, 6, !dbg !2421
  br i1 %_34, label %bb13, label %bb14, !dbg !2421

bb11:                                             ; preds = %bb10
  store i8 5, ptr %1, align 1, !dbg !2428
  br label %bb83, !dbg !2421

bb14:                                             ; preds = %bb12
  store ptr %ek, ptr %v.dbg.spill7, align 8, !dbg !2421
  call void @llvm.dbg.declare(metadata ptr %v.dbg.spill7, metadata !2320, metadata !DIExpression()), !dbg !2430
  %_40 = load i32, ptr %ek, align 4, !dbg !2421, !noundef !28
  %_39 = icmp eq i32 %_40, 7, !dbg !2421
  br i1 %_39, label %bb15, label %bb16, !dbg !2421

bb13:                                             ; preds = %bb12
  store i8 6, ptr %1, align 1, !dbg !2429
  br label %bb83, !dbg !2421

bb16:                                             ; preds = %bb14
  store ptr %ek, ptr %v.dbg.spill8, align 8, !dbg !2421
  call void @llvm.dbg.declare(metadata ptr %v.dbg.spill8, metadata !2323, metadata !DIExpression()), !dbg !2431
  %_45 = load i32, ptr %ek, align 4, !dbg !2421, !noundef !28
  %_44 = icmp eq i32 %_45, 8, !dbg !2421
  br i1 %_44, label %bb17, label %bb18, !dbg !2421

bb15:                                             ; preds = %bb14
  store i8 7, ptr %1, align 1, !dbg !2430
  br label %bb83, !dbg !2421

bb18:                                             ; preds = %bb16
  store ptr %ek, ptr %v.dbg.spill9, align 8, !dbg !2421
  call void @llvm.dbg.declare(metadata ptr %v.dbg.spill9, metadata !2326, metadata !DIExpression()), !dbg !2432
  %_50 = load i32, ptr %ek, align 4, !dbg !2421, !noundef !28
  %_49 = icmp eq i32 %_50, 9, !dbg !2421
  br i1 %_49, label %bb19, label %bb20, !dbg !2421

bb17:                                             ; preds = %bb16
  store i8 8, ptr %1, align 1, !dbg !2431
  br label %bb83, !dbg !2421

bb20:                                             ; preds = %bb18
  store ptr %ek, ptr %v.dbg.spill10, align 8, !dbg !2421
  call void @llvm.dbg.declare(metadata ptr %v.dbg.spill10, metadata !2329, metadata !DIExpression()), !dbg !2433
  %_55 = load i32, ptr %ek, align 4, !dbg !2421, !noundef !28
  %_54 = icmp eq i32 %_55, 10, !dbg !2421
  br i1 %_54, label %bb21, label %bb22, !dbg !2421

bb19:                                             ; preds = %bb18
  store i8 9, ptr %1, align 1, !dbg !2432
  br label %bb83, !dbg !2421

bb22:                                             ; preds = %bb20
  store ptr %ek, ptr %v.dbg.spill11, align 8, !dbg !2421
  call void @llvm.dbg.declare(metadata ptr %v.dbg.spill11, metadata !2332, metadata !DIExpression()), !dbg !2434
  %_60 = load i32, ptr %ek, align 4, !dbg !2421, !noundef !28
  %_59 = icmp eq i32 %_60, 11, !dbg !2421
  br i1 %_59, label %bb23, label %bb24, !dbg !2421

bb21:                                             ; preds = %bb20
  store i8 10, ptr %1, align 1, !dbg !2433
  br label %bb83, !dbg !2421

bb24:                                             ; preds = %bb22
  store ptr %ek, ptr %v.dbg.spill12, align 8, !dbg !2421
  call void @llvm.dbg.declare(metadata ptr %v.dbg.spill12, metadata !2335, metadata !DIExpression()), !dbg !2435
  %_65 = load i32, ptr %ek, align 4, !dbg !2421, !noundef !28
  %_64 = icmp eq i32 %_65, 12, !dbg !2421
  br i1 %_64, label %bb25, label %bb26, !dbg !2421

bb23:                                             ; preds = %bb22
  store i8 11, ptr %1, align 1, !dbg !2434
  br label %bb83, !dbg !2421

bb26:                                             ; preds = %bb24
  store ptr %ek, ptr %v.dbg.spill13, align 8, !dbg !2421
  call void @llvm.dbg.declare(metadata ptr %v.dbg.spill13, metadata !2338, metadata !DIExpression()), !dbg !2436
  %_70 = load i32, ptr %ek, align 4, !dbg !2421, !noundef !28
  %_69 = icmp eq i32 %_70, 13, !dbg !2421
  br i1 %_69, label %bb27, label %bb28, !dbg !2421

bb25:                                             ; preds = %bb24
  store i8 12, ptr %1, align 1, !dbg !2435
  br label %bb83, !dbg !2421

bb28:                                             ; preds = %bb26
  store ptr %ek, ptr %v.dbg.spill14, align 8, !dbg !2421
  call void @llvm.dbg.declare(metadata ptr %v.dbg.spill14, metadata !2341, metadata !DIExpression()), !dbg !2437
  %_75 = load i32, ptr %ek, align 4, !dbg !2421, !noundef !28
  %_74 = icmp eq i32 %_75, 14, !dbg !2421
  br i1 %_74, label %bb29, label %bb30, !dbg !2421

bb27:                                             ; preds = %bb26
  store i8 13, ptr %1, align 1, !dbg !2436
  br label %bb83, !dbg !2421

bb30:                                             ; preds = %bb28
  store ptr %ek, ptr %v.dbg.spill15, align 8, !dbg !2421
  call void @llvm.dbg.declare(metadata ptr %v.dbg.spill15, metadata !2344, metadata !DIExpression()), !dbg !2438
  %_80 = load i32, ptr %ek, align 4, !dbg !2421, !noundef !28
  %_79 = icmp eq i32 %_80, 15, !dbg !2421
  br i1 %_79, label %bb31, label %bb32, !dbg !2421

bb29:                                             ; preds = %bb28
  store i8 14, ptr %1, align 1, !dbg !2437
  br label %bb83, !dbg !2421

bb32:                                             ; preds = %bb30
  store ptr %ek, ptr %v.dbg.spill16, align 8, !dbg !2421
  call void @llvm.dbg.declare(metadata ptr %v.dbg.spill16, metadata !2347, metadata !DIExpression()), !dbg !2439
  %_85 = load i32, ptr %ek, align 4, !dbg !2421, !noundef !28
  %_84 = icmp eq i32 %_85, 16, !dbg !2421
  br i1 %_84, label %bb33, label %bb34, !dbg !2421

bb31:                                             ; preds = %bb30
  store i8 15, ptr %1, align 1, !dbg !2438
  br label %bb83, !dbg !2421

bb34:                                             ; preds = %bb32
  store ptr %ek, ptr %v.dbg.spill17, align 8, !dbg !2421
  call void @llvm.dbg.declare(metadata ptr %v.dbg.spill17, metadata !2350, metadata !DIExpression()), !dbg !2440
  %_90 = load i32, ptr %ek, align 4, !dbg !2421, !noundef !28
  %_89 = icmp eq i32 %_90, 17, !dbg !2421
  br i1 %_89, label %bb35, label %bb36, !dbg !2421

bb33:                                             ; preds = %bb32
  store i8 16, ptr %1, align 1, !dbg !2439
  br label %bb83, !dbg !2421

bb36:                                             ; preds = %bb34
  store ptr %ek, ptr %v.dbg.spill18, align 8, !dbg !2421
  call void @llvm.dbg.declare(metadata ptr %v.dbg.spill18, metadata !2353, metadata !DIExpression()), !dbg !2441
  %_95 = load i32, ptr %ek, align 4, !dbg !2421, !noundef !28
  %_94 = icmp eq i32 %_95, 18, !dbg !2421
  br i1 %_94, label %bb37, label %bb38, !dbg !2421

bb35:                                             ; preds = %bb34
  store i8 17, ptr %1, align 1, !dbg !2440
  br label %bb83, !dbg !2421

bb38:                                             ; preds = %bb36
  store ptr %ek, ptr %v.dbg.spill19, align 8, !dbg !2421
  call void @llvm.dbg.declare(metadata ptr %v.dbg.spill19, metadata !2356, metadata !DIExpression()), !dbg !2442
  %_100 = load i32, ptr %ek, align 4, !dbg !2421, !noundef !28
  %_99 = icmp eq i32 %_100, 19, !dbg !2421
  br i1 %_99, label %bb39, label %bb40, !dbg !2421

bb37:                                             ; preds = %bb36
  store i8 18, ptr %1, align 1, !dbg !2441
  br label %bb83, !dbg !2421

bb40:                                             ; preds = %bb38
  store ptr %ek, ptr %v.dbg.spill20, align 8, !dbg !2421
  call void @llvm.dbg.declare(metadata ptr %v.dbg.spill20, metadata !2359, metadata !DIExpression()), !dbg !2443
  %_105 = load i32, ptr %ek, align 4, !dbg !2421, !noundef !28
  %_104 = icmp eq i32 %_105, 20, !dbg !2421
  br i1 %_104, label %bb41, label %bb42, !dbg !2421

bb39:                                             ; preds = %bb38
  store i8 19, ptr %1, align 1, !dbg !2442
  br label %bb83, !dbg !2421

bb42:                                             ; preds = %bb40
  store ptr %ek, ptr %v.dbg.spill21, align 8, !dbg !2421
  call void @llvm.dbg.declare(metadata ptr %v.dbg.spill21, metadata !2362, metadata !DIExpression()), !dbg !2444
  %_110 = load i32, ptr %ek, align 4, !dbg !2421, !noundef !28
  %_109 = icmp eq i32 %_110, 21, !dbg !2421
  br i1 %_109, label %bb43, label %bb44, !dbg !2421

bb41:                                             ; preds = %bb40
  store i8 20, ptr %1, align 1, !dbg !2443
  br label %bb83, !dbg !2421

bb44:                                             ; preds = %bb42
  store ptr %ek, ptr %v.dbg.spill22, align 8, !dbg !2421
  call void @llvm.dbg.declare(metadata ptr %v.dbg.spill22, metadata !2365, metadata !DIExpression()), !dbg !2445
  %_115 = load i32, ptr %ek, align 4, !dbg !2421, !noundef !28
  %_114 = icmp eq i32 %_115, 22, !dbg !2421
  br i1 %_114, label %bb45, label %bb46, !dbg !2421

bb43:                                             ; preds = %bb42
  store i8 21, ptr %1, align 1, !dbg !2444
  br label %bb83, !dbg !2421

bb46:                                             ; preds = %bb44
  store ptr %ek, ptr %v.dbg.spill23, align 8, !dbg !2421
  call void @llvm.dbg.declare(metadata ptr %v.dbg.spill23, metadata !2368, metadata !DIExpression()), !dbg !2446
  %_120 = load i32, ptr %ek, align 4, !dbg !2421, !noundef !28
  %_119 = icmp eq i32 %_120, 23, !dbg !2421
  br i1 %_119, label %bb47, label %bb48, !dbg !2421

bb45:                                             ; preds = %bb44
  store i8 22, ptr %1, align 1, !dbg !2445
  br label %bb83, !dbg !2421

bb48:                                             ; preds = %bb46
  store ptr %ek, ptr %v.dbg.spill24, align 8, !dbg !2421
  call void @llvm.dbg.declare(metadata ptr %v.dbg.spill24, metadata !2371, metadata !DIExpression()), !dbg !2447
  %_125 = load i32, ptr %ek, align 4, !dbg !2421, !noundef !28
  %_124 = icmp eq i32 %_125, 24, !dbg !2421
  br i1 %_124, label %bb49, label %bb50, !dbg !2421

bb47:                                             ; preds = %bb46
  store i8 23, ptr %1, align 1, !dbg !2446
  br label %bb83, !dbg !2421

bb50:                                             ; preds = %bb48
  store ptr %ek, ptr %v.dbg.spill25, align 8, !dbg !2421
  call void @llvm.dbg.declare(metadata ptr %v.dbg.spill25, metadata !2374, metadata !DIExpression()), !dbg !2448
  %_130 = load i32, ptr %ek, align 4, !dbg !2421, !noundef !28
  %_129 = icmp eq i32 %_130, 25, !dbg !2421
  br i1 %_129, label %bb51, label %bb52, !dbg !2421

bb49:                                             ; preds = %bb48
  store i8 24, ptr %1, align 1, !dbg !2447
  br label %bb83, !dbg !2421

bb52:                                             ; preds = %bb50
  store ptr %ek, ptr %v.dbg.spill26, align 8, !dbg !2421
  call void @llvm.dbg.declare(metadata ptr %v.dbg.spill26, metadata !2377, metadata !DIExpression()), !dbg !2449
  %_135 = load i32, ptr %ek, align 4, !dbg !2421, !noundef !28
  %_134 = icmp eq i32 %_135, 26, !dbg !2421
  br i1 %_134, label %bb53, label %bb54, !dbg !2421

bb51:                                             ; preds = %bb50
  store i8 25, ptr %1, align 1, !dbg !2448
  br label %bb83, !dbg !2421

bb54:                                             ; preds = %bb52
  store ptr %ek, ptr %v.dbg.spill27, align 8, !dbg !2421
  call void @llvm.dbg.declare(metadata ptr %v.dbg.spill27, metadata !2380, metadata !DIExpression()), !dbg !2450
  %_140 = load i32, ptr %ek, align 4, !dbg !2421, !noundef !28
  %_139 = icmp eq i32 %_140, 27, !dbg !2421
  br i1 %_139, label %bb55, label %bb56, !dbg !2421

bb53:                                             ; preds = %bb52
  store i8 26, ptr %1, align 1, !dbg !2449
  br label %bb83, !dbg !2421

bb56:                                             ; preds = %bb54
  store ptr %ek, ptr %v.dbg.spill28, align 8, !dbg !2421
  call void @llvm.dbg.declare(metadata ptr %v.dbg.spill28, metadata !2383, metadata !DIExpression()), !dbg !2451
  %_145 = load i32, ptr %ek, align 4, !dbg !2421, !noundef !28
  %_144 = icmp eq i32 %_145, 28, !dbg !2421
  br i1 %_144, label %bb57, label %bb58, !dbg !2421

bb55:                                             ; preds = %bb54
  store i8 27, ptr %1, align 1, !dbg !2450
  br label %bb83, !dbg !2421

bb58:                                             ; preds = %bb56
  store ptr %ek, ptr %v.dbg.spill29, align 8, !dbg !2421
  call void @llvm.dbg.declare(metadata ptr %v.dbg.spill29, metadata !2386, metadata !DIExpression()), !dbg !2452
  %_150 = load i32, ptr %ek, align 4, !dbg !2421, !noundef !28
  %_149 = icmp eq i32 %_150, 29, !dbg !2421
  br i1 %_149, label %bb59, label %bb60, !dbg !2421

bb57:                                             ; preds = %bb56
  store i8 28, ptr %1, align 1, !dbg !2451
  br label %bb83, !dbg !2421

bb60:                                             ; preds = %bb58
  store ptr %ek, ptr %v.dbg.spill30, align 8, !dbg !2421
  call void @llvm.dbg.declare(metadata ptr %v.dbg.spill30, metadata !2389, metadata !DIExpression()), !dbg !2453
  %_155 = load i32, ptr %ek, align 4, !dbg !2421, !noundef !28
  %_154 = icmp eq i32 %_155, 30, !dbg !2421
  br i1 %_154, label %bb61, label %bb62, !dbg !2421

bb59:                                             ; preds = %bb58
  store i8 29, ptr %1, align 1, !dbg !2452
  br label %bb83, !dbg !2421

bb62:                                             ; preds = %bb60
  store ptr %ek, ptr %v.dbg.spill31, align 8, !dbg !2421
  call void @llvm.dbg.declare(metadata ptr %v.dbg.spill31, metadata !2392, metadata !DIExpression()), !dbg !2454
  %_160 = load i32, ptr %ek, align 4, !dbg !2421, !noundef !28
  %_159 = icmp eq i32 %_160, 31, !dbg !2421
  br i1 %_159, label %bb63, label %bb64, !dbg !2421

bb61:                                             ; preds = %bb60
  store i8 30, ptr %1, align 1, !dbg !2453
  br label %bb83, !dbg !2421

bb64:                                             ; preds = %bb62
  store ptr %ek, ptr %v.dbg.spill32, align 8, !dbg !2421
  call void @llvm.dbg.declare(metadata ptr %v.dbg.spill32, metadata !2395, metadata !DIExpression()), !dbg !2455
  %_165 = load i32, ptr %ek, align 4, !dbg !2421, !noundef !28
  %_164 = icmp eq i32 %_165, 32, !dbg !2421
  br i1 %_164, label %bb65, label %bb66, !dbg !2421

bb63:                                             ; preds = %bb62
  store i8 31, ptr %1, align 1, !dbg !2454
  br label %bb83, !dbg !2421

bb66:                                             ; preds = %bb64
  store ptr %ek, ptr %v.dbg.spill33, align 8, !dbg !2421
  call void @llvm.dbg.declare(metadata ptr %v.dbg.spill33, metadata !2398, metadata !DIExpression()), !dbg !2456
  %_170 = load i32, ptr %ek, align 4, !dbg !2421, !noundef !28
  %_169 = icmp eq i32 %_170, 33, !dbg !2421
  br i1 %_169, label %bb67, label %bb68, !dbg !2421

bb65:                                             ; preds = %bb64
  store i8 32, ptr %1, align 1, !dbg !2455
  br label %bb83, !dbg !2421

bb68:                                             ; preds = %bb66
  store ptr %ek, ptr %v.dbg.spill34, align 8, !dbg !2421
  call void @llvm.dbg.declare(metadata ptr %v.dbg.spill34, metadata !2401, metadata !DIExpression()), !dbg !2457
  %_175 = load i32, ptr %ek, align 4, !dbg !2421, !noundef !28
  %_174 = icmp eq i32 %_175, 34, !dbg !2421
  br i1 %_174, label %bb69, label %bb70, !dbg !2421

bb67:                                             ; preds = %bb66
  store i8 33, ptr %1, align 1, !dbg !2456
  br label %bb83, !dbg !2421

bb70:                                             ; preds = %bb68
  store ptr %ek, ptr %v.dbg.spill35, align 8, !dbg !2421
  call void @llvm.dbg.declare(metadata ptr %v.dbg.spill35, metadata !2404, metadata !DIExpression()), !dbg !2458
  %_180 = load i32, ptr %ek, align 4, !dbg !2421, !noundef !28
  %_179 = icmp eq i32 %_180, 35, !dbg !2421
  br i1 %_179, label %bb71, label %bb72, !dbg !2421

bb69:                                             ; preds = %bb68
  store i8 34, ptr %1, align 1, !dbg !2457
  br label %bb83, !dbg !2421

bb72:                                             ; preds = %bb70
  store ptr %ek, ptr %v.dbg.spill36, align 8, !dbg !2421
  call void @llvm.dbg.declare(metadata ptr %v.dbg.spill36, metadata !2407, metadata !DIExpression()), !dbg !2459
  %_185 = load i32, ptr %ek, align 4, !dbg !2421, !noundef !28
  %_184 = icmp eq i32 %_185, 39, !dbg !2421
  br i1 %_184, label %bb73, label %bb74, !dbg !2421

bb71:                                             ; preds = %bb70
  store i8 35, ptr %1, align 1, !dbg !2458
  br label %bb83, !dbg !2421

bb74:                                             ; preds = %bb72
  store ptr %ek, ptr %v.dbg.spill37, align 8, !dbg !2421
  call void @llvm.dbg.declare(metadata ptr %v.dbg.spill37, metadata !2410, metadata !DIExpression()), !dbg !2460
  %_190 = load i32, ptr %ek, align 4, !dbg !2421, !noundef !28
  %_189 = icmp eq i32 %_190, 37, !dbg !2421
  br i1 %_189, label %bb75, label %bb76, !dbg !2421

bb73:                                             ; preds = %bb72
  store i8 39, ptr %1, align 1, !dbg !2459
  br label %bb83, !dbg !2421

bb76:                                             ; preds = %bb74
  store ptr %ek, ptr %v.dbg.spill38, align 8, !dbg !2421
  call void @llvm.dbg.declare(metadata ptr %v.dbg.spill38, metadata !2413, metadata !DIExpression()), !dbg !2461
  %_195 = load i32, ptr %ek, align 4, !dbg !2421, !noundef !28
  %_194 = icmp eq i32 %_195, 36, !dbg !2421
  br i1 %_194, label %bb77, label %bb78, !dbg !2421

bb75:                                             ; preds = %bb74
  store i8 37, ptr %1, align 1, !dbg !2460
  br label %bb83, !dbg !2421

bb78:                                             ; preds = %bb76
  store ptr %ek, ptr %v.dbg.spill39, align 8, !dbg !2421
  call void @llvm.dbg.declare(metadata ptr %v.dbg.spill39, metadata !2416, metadata !DIExpression()), !dbg !2462
  %_200 = load i32, ptr %ek, align 4, !dbg !2421, !noundef !28
  %_199 = icmp eq i32 %_200, 38, !dbg !2421
  br i1 %_199, label %bb79, label %bb80, !dbg !2421

bb77:                                             ; preds = %bb76
  store i8 36, ptr %1, align 1, !dbg !2461
  br label %bb83, !dbg !2421

bb80:                                             ; preds = %bb78
  store ptr %ek, ptr %v.dbg.spill40, align 8, !dbg !2421
  call void @llvm.dbg.declare(metadata ptr %v.dbg.spill40, metadata !2419, metadata !DIExpression()), !dbg !2463
  %_205 = load i32, ptr %ek, align 4, !dbg !2421, !noundef !28
  %_204 = icmp eq i32 %_205, 40, !dbg !2421
  br i1 %_204, label %bb81, label %bb82, !dbg !2421

bb79:                                             ; preds = %bb78
  store i8 38, ptr %1, align 1, !dbg !2462
  br label %bb83, !dbg !2421

bb82:                                             ; preds = %bb80
  store i8 41, ptr %1, align 1, !dbg !2421
  br label %bb83, !dbg !2421

bb81:                                             ; preds = %bb80
  store i8 40, ptr %1, align 1, !dbg !2463
  br label %bb83, !dbg !2421
}

; std::io::error::repr_bitpacked::Repr::data::{{closure}}
; Function Attrs: inlinehint nonlazybind uwtable
define internal align 8 ptr @"_ZN3std2io5error14repr_bitpacked4Repr4data28_$u7b$$u7b$closure$u7d$$u7d$17h7cd7e89057abc69eE"(ptr %c) unnamed_addr #1 !dbg !2464 {
start:
  %c.dbg.spill = alloca ptr, align 8
  %_1.dbg.spill = alloca %"[closure@std::io::error::repr_bitpacked::Repr::data::{closure#0}]", align 1
  call void @llvm.dbg.declare(metadata ptr %_1.dbg.spill, metadata !2469, metadata !DIExpression()), !dbg !2470
  store ptr %c, ptr %c.dbg.spill, align 8
  call void @llvm.dbg.declare(metadata ptr %c.dbg.spill, metadata !2468, metadata !DIExpression()), !dbg !2471
  ret ptr %c, !dbg !2472
}

; std::io::error::Error::kind
; Function Attrs: inlinehint nonlazybind uwtable
define internal i8 @_ZN3std2io5error5Error4kind17h70385ea48fdaba4dE(ptr align 8 %self) unnamed_addr #1 !dbg !2473 {
start:
  %code.dbg.spill = alloca i32, align 4
  %kind.dbg.spill = alloca i8, align 1
  %m.dbg.spill = alloca ptr, align 8
  %c.dbg.spill = alloca ptr, align 8
  %self.dbg.spill1 = alloca ptr, align 8
  %self.dbg.spill = alloca ptr, align 8
  %_2 = alloca %"std::io::error::ErrorData<&std::io::error::Custom>", align 8
  %0 = alloca i8, align 1
  store ptr %self, ptr %self.dbg.spill, align 8
  call void @llvm.dbg.declare(metadata ptr %self.dbg.spill, metadata !2477, metadata !DIExpression()), !dbg !2486
  store ptr %self, ptr %self.dbg.spill1, align 8, !dbg !2487
  call void @llvm.dbg.declare(metadata ptr %self.dbg.spill1, metadata !2488, metadata !DIExpression()), !dbg !2494
  %_10 = load ptr, ptr %self, align 8, !dbg !2496, !nonnull !28, !noundef !28
; call std::io::error::repr_bitpacked::decode_repr
  call void @_ZN3std2io5error14repr_bitpacked11decode_repr17he0cb88178d036a7bE(ptr sret(%"std::io::error::ErrorData<&std::io::error::Custom>") %_2, ptr %_10), !dbg !2497
  %1 = load i8, ptr %_2, align 8, !dbg !2487, !range !2498, !noundef !28
  %_4 = zext i8 %1 to i64, !dbg !2487
  switch i64 %_4, label %bb2 [
    i64 0, label %bb3
    i64 1, label %bb6
    i64 2, label %bb1
    i64 3, label %bb5
  ], !dbg !2499

bb2:                                              ; preds = %start
  unreachable, !dbg !2487

bb3:                                              ; preds = %start
  %2 = getelementptr inbounds %"std::io::error::ErrorData<&std::io::error::Custom>::Os", ptr %_2, i32 0, i32 1, !dbg !2500
  %code = load i32, ptr %2, align 4, !dbg !2500, !noundef !28
  store i32 %code, ptr %code.dbg.spill, align 4, !dbg !2500
  call void @llvm.dbg.declare(metadata ptr %code.dbg.spill, metadata !2478, metadata !DIExpression()), !dbg !2501
; call std::sys::unix::decode_error_kind
  %3 = call i8 @_ZN3std3sys4unix17decode_error_kind17h5adf76a4518830caE(i32 %code), !dbg !2502, !range !1580
  store i8 %3, ptr %0, align 1, !dbg !2502
  br label %bb7, !dbg !2503

bb6:                                              ; preds = %start
  %4 = getelementptr inbounds %"std::io::error::ErrorData<&std::io::error::Custom>::Simple", ptr %_2, i32 0, i32 1, !dbg !2504
  %kind = load i8, ptr %4, align 1, !dbg !2504, !range !1580, !noundef !28
  store i8 %kind, ptr %kind.dbg.spill, align 1, !dbg !2504
  call void @llvm.dbg.declare(metadata ptr %kind.dbg.spill, metadata !2482, metadata !DIExpression()), !dbg !2505
  store i8 %kind, ptr %0, align 1, !dbg !2506
  br label %bb7, !dbg !2507

bb1:                                              ; preds = %start
  %5 = getelementptr inbounds %"std::io::error::ErrorData<&std::io::error::Custom>::SimpleMessage", ptr %_2, i32 0, i32 1, !dbg !2508
  %m = load ptr, ptr %5, align 8, !dbg !2508, !nonnull !28, !align !1389, !noundef !28
  store ptr %m, ptr %m.dbg.spill, align 8, !dbg !2508
  call void @llvm.dbg.declare(metadata ptr %m.dbg.spill, metadata !2484, metadata !DIExpression()), !dbg !2509
  %6 = getelementptr inbounds %"std::io::error::SimpleMessage", ptr %m, i32 0, i32 1, !dbg !2510
  %7 = load i8, ptr %6, align 8, !dbg !2510, !range !1580, !noundef !28
  store i8 %7, ptr %0, align 1, !dbg !2510
  br label %bb7, !dbg !2511

bb5:                                              ; preds = %start
  %8 = getelementptr inbounds %"std::io::error::ErrorData<&std::io::error::Custom>::Custom", ptr %_2, i32 0, i32 1, !dbg !2512
  %c = load ptr, ptr %8, align 8, !dbg !2512, !nonnull !28, !align !1389, !noundef !28
  store ptr %c, ptr %c.dbg.spill, align 8, !dbg !2512
  call void @llvm.dbg.declare(metadata ptr %c.dbg.spill, metadata !2480, metadata !DIExpression()), !dbg !2513
  %9 = getelementptr inbounds %"std::io::error::Custom", ptr %c, i32 0, i32 1, !dbg !2514
  %10 = load i8, ptr %9, align 8, !dbg !2514, !range !1580, !noundef !28
  store i8 %10, ptr %0, align 1, !dbg !2514
  br label %bb7, !dbg !2515

bb7:                                              ; preds = %bb3, %bb6, %bb1, %bb5
  %11 = load i8, ptr %0, align 1, !dbg !2516, !range !1580, !noundef !28
  ret i8 %11, !dbg !2516
}

; std::rt::lang_start
; Function Attrs: nonlazybind uwtable
define hidden i64 @_ZN3std2rt10lang_start17hda86b26a070ba0d9E(ptr %main, i64 %argc, ptr %argv, i8 %sigpipe) unnamed_addr #0 !dbg !2517 {
start:
  %v.dbg.spill = alloca i64, align 8
  %sigpipe.dbg.spill = alloca i8, align 1
  %argv.dbg.spill = alloca ptr, align 8
  %argc.dbg.spill = alloca i64, align 8
  %main.dbg.spill = alloca ptr, align 8
  %_9 = alloca ptr, align 8
  %_5 = alloca i64, align 8
  store ptr %main, ptr %main.dbg.spill, align 8
  call void @llvm.dbg.declare(metadata ptr %main.dbg.spill, metadata !2523, metadata !DIExpression()), !dbg !2529
  store i64 %argc, ptr %argc.dbg.spill, align 8
  call void @llvm.dbg.declare(metadata ptr %argc.dbg.spill, metadata !2524, metadata !DIExpression()), !dbg !2530
  store ptr %argv, ptr %argv.dbg.spill, align 8
  call void @llvm.dbg.declare(metadata ptr %argv.dbg.spill, metadata !2525, metadata !DIExpression()), !dbg !2531
  store i8 %sigpipe, ptr %sigpipe.dbg.spill, align 1
  call void @llvm.dbg.declare(metadata ptr %sigpipe.dbg.spill, metadata !2526, metadata !DIExpression()), !dbg !2532
  store ptr %main, ptr %_9, align 8, !dbg !2533
; call std::rt::lang_start_internal
  %0 = call i64 @_ZN3std2rt19lang_start_internal17hca9d5c7277f5b67cE(ptr align 1 %_9, ptr align 8 @vtable.1, i64 %argc, ptr %argv, i8 %sigpipe), !dbg !2534
  store i64 %0, ptr %_5, align 8, !dbg !2534
  %v = load i64, ptr %_5, align 8, !dbg !2535, !noundef !28
  store i64 %v, ptr %v.dbg.spill, align 8, !dbg !2535
  call void @llvm.dbg.declare(metadata ptr %v.dbg.spill, metadata !2527, metadata !DIExpression()), !dbg !2536
  ret i64 %v, !dbg !2537
}

; std::rt::lang_start::{{closure}}
; Function Attrs: inlinehint nonlazybind uwtable
define internal i32 @"_ZN3std2rt10lang_start28_$u7b$$u7b$closure$u7d$$u7d$17h570bbc445ddddfc3E"(ptr align 8 %_1) unnamed_addr #1 !dbg !2538 {
start:
  %self.dbg.spill = alloca ptr, align 8
  %_1.dbg.spill = alloca ptr, align 8
  %self = alloca i8, align 1
  store ptr %_1, ptr %_1.dbg.spill, align 8
  call void @llvm.dbg.declare(metadata ptr %_1.dbg.spill, metadata !2543, metadata !DIExpression(DW_OP_deref)), !dbg !2544
  call void @llvm.dbg.declare(metadata ptr %self, metadata !2545, metadata !DIExpression()), !dbg !2560
  %_4 = load ptr, ptr %_1, align 8, !dbg !2562, !nonnull !28, !noundef !28
; call std::sys_common::backtrace::__rust_begin_short_backtrace
  call void @_ZN3std10sys_common9backtrace28__rust_begin_short_backtrace17hbeda6b8358bdad9eE(ptr %_4), !dbg !2563
; call <() as std::process::Termination>::report
  %0 = call i8 @"_ZN54_$LT$$LP$$RP$$u20$as$u20$std..process..Termination$GT$6report17hbbc4c80a92f5f5c5E"(), !dbg !2563
  store i8 %0, ptr %self, align 1, !dbg !2563
  store ptr %self, ptr %self.dbg.spill, align 8, !dbg !2564
  call void @llvm.dbg.declare(metadata ptr %self.dbg.spill, metadata !2565, metadata !DIExpression()), !dbg !2572
  %_6 = load i8, ptr %self, align 1, !dbg !2574, !noundef !28
  %1 = zext i8 %_6 to i32, !dbg !2574
  ret i32 %1, !dbg !2575
}

; std::sys::unix::locks::futex_mutex::Mutex::lock
; Function Attrs: inlinehint nonlazybind uwtable
define internal void @_ZN3std3sys4unix5locks11futex_mutex5Mutex4lock17h6caa784e5550724bE(ptr align 4 %self) unnamed_addr #1 !dbg !2576 {
start:
  %self.dbg.spill4 = alloca ptr, align 8
  %self.dbg.spill3 = alloca ptr, align 8
  %self.dbg.spill2 = alloca ptr, align 8
  %self.dbg.spill1 = alloca ptr, align 8
  %self.dbg.spill = alloca ptr, align 8
  %_20 = alloca i8, align 1
  %_4 = alloca { i32, i32 }, align 4
  store ptr %self, ptr %self.dbg.spill, align 8
  call void @llvm.dbg.declare(metadata ptr %self.dbg.spill, metadata !2582, metadata !DIExpression()), !dbg !2583
  store ptr %self, ptr %self.dbg.spill1, align 8, !dbg !2584
  call void @llvm.dbg.declare(metadata ptr %self.dbg.spill1, metadata !2585, metadata !DIExpression()), !dbg !2611
  store ptr %self, ptr %self.dbg.spill2, align 8, !dbg !2613
  call void @llvm.dbg.declare(metadata ptr %self.dbg.spill2, metadata !2614, metadata !DIExpression()), !dbg !2621
; call core::sync::atomic::atomic_compare_exchange
  %0 = call { i32, i32 } @_ZN4core4sync6atomic23atomic_compare_exchange17h6909d33bd3bd6cbcE(ptr %self, i32 0, i32 1, i8 2, i8 0), !dbg !2623
  store { i32, i32 } %0, ptr %_4, align 4, !dbg !2623
  store ptr %_4, ptr %self.dbg.spill3, align 8, !dbg !2584
  call void @llvm.dbg.declare(metadata ptr %self.dbg.spill3, metadata !2624, metadata !DIExpression()), !dbg !2630
  store ptr %_4, ptr %self.dbg.spill4, align 8, !dbg !2632
  call void @llvm.dbg.declare(metadata ptr %self.dbg.spill4, metadata !2633, metadata !DIExpression()), !dbg !2636
  %1 = load i32, ptr %_4, align 4, !dbg !2638, !range !2639, !noundef !28
  %_22 = zext i32 %1 to i64, !dbg !2638
  %2 = icmp eq i64 %_22, 0, !dbg !2640
  br i1 %2, label %bb7, label %bb6, !dbg !2640

bb7:                                              ; preds = %start
  store i8 1, ptr %_20, align 1, !dbg !2642
  br label %bb5, !dbg !2642

bb6:                                              ; preds = %start
  store i8 0, ptr %_20, align 1, !dbg !2643
  br label %bb5, !dbg !2643

bb5:                                              ; preds = %bb7, %bb6
  %3 = load i8, ptr %_20, align 1, !dbg !2644, !range !1772, !noundef !28
  %4 = trunc i8 %3 to i1, !dbg !2644
  %_2 = xor i1 %4, true, !dbg !2644
  br i1 %_2, label %bb1, label %bb3, !dbg !2584

bb3:                                              ; preds = %bb1, %bb5
  ret void, !dbg !2645

bb1:                                              ; preds = %bb5
; call std::sys::unix::locks::futex_mutex::Mutex::lock_contended
  call void @_ZN3std3sys4unix5locks11futex_mutex5Mutex14lock_contended17h44ddef2e70df2aceE(ptr align 4 %self), !dbg !2646
  br label %bb3, !dbg !2647
}

; std::sys::unix::locks::futex_mutex::Mutex::unlock
; Function Attrs: inlinehint nonlazybind uwtable
define internal void @_ZN3std3sys4unix5locks11futex_mutex5Mutex6unlock17h05b5d47b6449a633E(ptr align 4 %self) unnamed_addr #1 !dbg !2648 {
start:
  %self.dbg.spill2 = alloca ptr, align 8
  %self.dbg.spill1 = alloca ptr, align 8
  %self.dbg.spill = alloca ptr, align 8
  store ptr %self, ptr %self.dbg.spill, align 8
  call void @llvm.dbg.declare(metadata ptr %self.dbg.spill, metadata !2650, metadata !DIExpression()), !dbg !2651
  store ptr %self, ptr %self.dbg.spill1, align 8, !dbg !2652
  call void @llvm.dbg.declare(metadata ptr %self.dbg.spill1, metadata !2653, metadata !DIExpression()), !dbg !2660
  store ptr %self, ptr %self.dbg.spill2, align 8, !dbg !2662
  call void @llvm.dbg.declare(metadata ptr %self.dbg.spill2, metadata !2663, metadata !DIExpression()), !dbg !2666
; call core::sync::atomic::atomic_swap
  %_2 = call i32 @_ZN4core4sync6atomic11atomic_swap17hf81c1f0200ed3b8eE(ptr %self, i32 0, i8 1), !dbg !2668
  %0 = icmp eq i32 %_2, 2, !dbg !2652
  br i1 %0, label %bb1, label %bb3, !dbg !2652

bb1:                                              ; preds = %start
; call std::sys::unix::locks::futex_mutex::Mutex::wake
  call void @_ZN3std3sys4unix5locks11futex_mutex5Mutex4wake17h6fc9e8af28cb634bE(ptr align 4 %self), !dbg !2669
  br label %bb4, !dbg !2670

bb3:                                              ; preds = %start
  br label %bb4, !dbg !2670

bb4:                                              ; preds = %bb1, %bb3
  ret void, !dbg !2671
}

; std::sync::mutex::Mutex<T>::new
; Function Attrs: inlinehint nonlazybind uwtable
define internal void @"_ZN3std4sync5mutex14Mutex$LT$T$GT$3new17hd3162ff874ea36d9E"(ptr sret(%"std::sync::mutex::Mutex<std::collections::hash::map::HashMap<alloc::string::String, alloc::string::String>>") %0, ptr %t) unnamed_addr #1 !dbg !2672 {
start:
  %_12 = alloca %"std::collections::hash::map::HashMap<alloc::string::String, alloc::string::String>", align 8
  %_9 = alloca %"core::sync::atomic::AtomicBool", align 1
  %_6 = alloca %"core::sync::atomic::AtomicU32", align 4
  %value = alloca %"std::collections::hash::map::HashMap<alloc::string::String, alloc::string::String>", align 8
  %_4 = alloca %"core::cell::UnsafeCell<std::collections::hash::map::HashMap<alloc::string::String, alloc::string::String>>", align 8
  %_3 = alloca %"std::sync::poison::Flag", align 1
  %_2 = alloca %"std::sys::unix::locks::futex_mutex::Mutex", align 4
  call void @llvm.dbg.declare(metadata ptr %t, metadata !2677, metadata !DIExpression()), !dbg !2678
  call void @llvm.dbg.declare(metadata ptr %value, metadata !2679, metadata !DIExpression()), !dbg !2684
  store i32 0, ptr %_6, align 4, !dbg !2686
  call void @llvm.memcpy.p0.p0.i64(ptr align 4 %_2, ptr align 4 %_6, i64 4, i1 false), !dbg !2697
  store i8 0, ptr %_9, align 1, !dbg !2698
  call void @llvm.memcpy.p0.p0.i64(ptr align 1 %_3, ptr align 1 %_9, i64 1, i1 false), !dbg !2710
  call void @llvm.memcpy.p0.p0.i64(ptr align 8 %value, ptr align 8 %t, i64 48, i1 false), !dbg !2711
  call void @llvm.memcpy.p0.p0.i64(ptr align 8 %_12, ptr align 8 %value, i64 48, i1 false), !dbg !2712
  call void @llvm.memcpy.p0.p0.i64(ptr align 8 %_4, ptr align 8 %_12, i64 48, i1 false), !dbg !2713
  call void @llvm.memcpy.p0.p0.i64(ptr align 8 %0, ptr align 4 %_2, i64 4, i1 false), !dbg !2714
  %1 = getelementptr inbounds %"std::sync::mutex::Mutex<std::collections::hash::map::HashMap<alloc::string::String, alloc::string::String>>", ptr %0, i32 0, i32 1, !dbg !2714
  call void @llvm.memcpy.p0.p0.i64(ptr align 4 %1, ptr align 1 %_3, i64 1, i1 false), !dbg !2714
  %2 = getelementptr inbounds %"std::sync::mutex::Mutex<std::collections::hash::map::HashMap<alloc::string::String, alloc::string::String>>", ptr %0, i32 0, i32 3, !dbg !2714
  call void @llvm.memcpy.p0.p0.i64(ptr align 8 %2, ptr align 8 %_4, i64 48, i1 false), !dbg !2714
  ret void, !dbg !2715
}

; std::sync::mutex::Mutex<T>::lock
; Function Attrs: nonlazybind uwtable
define internal void @"_ZN3std4sync5mutex14Mutex$LT$T$GT$4lock17h4c2a4f581853eef5E"(ptr sret(%"core::result::Result<std::sync::mutex::MutexGuard<'_, std::collections::hash::map::HashMap<alloc::string::String, alloc::string::String>>, std::sync::poison::PoisonError<std::sync::mutex::MutexGuard<'_, std::collections::hash::map::HashMap<alloc::string::String, alloc::string::String>>>>") %0, ptr align 8 %self) unnamed_addr #0 !dbg !2716 {
start:
  %self.dbg.spill = alloca ptr, align 8
  store ptr %self, ptr %self.dbg.spill, align 8
  call void @llvm.dbg.declare(metadata ptr %self.dbg.spill, metadata !2735, metadata !DIExpression()), !dbg !2736
; call std::sys::unix::locks::futex_mutex::Mutex::lock
  call void @_ZN3std3sys4unix5locks11futex_mutex5Mutex4lock17h6caa784e5550724bE(ptr align 4 %self), !dbg !2737
; call std::sync::mutex::MutexGuard<T>::new
  call void @"_ZN3std4sync5mutex19MutexGuard$LT$T$GT$3new17h10b803b8316615aeE"(ptr sret(%"core::result::Result<std::sync::mutex::MutexGuard<'_, std::collections::hash::map::HashMap<alloc::string::String, alloc::string::String>>, std::sync::poison::PoisonError<std::sync::mutex::MutexGuard<'_, std::collections::hash::map::HashMap<alloc::string::String, alloc::string::String>>>>") %0, ptr align 8 %self), !dbg !2738
  ret void, !dbg !2739
}

; std::sync::mutex::MutexGuard<T>::new
; Function Attrs: nonlazybind uwtable
define internal void @"_ZN3std4sync5mutex19MutexGuard$LT$T$GT$3new17h10b803b8316615aeE"(ptr sret(%"core::result::Result<std::sync::mutex::MutexGuard<'_, std::collections::hash::map::HashMap<alloc::string::String, alloc::string::String>>, std::sync::poison::PoisonError<std::sync::mutex::MutexGuard<'_, std::collections::hash::map::HashMap<alloc::string::String, alloc::string::String>>>>") %0, ptr align 8 %lock) unnamed_addr #0 !dbg !2740 {
start:
  %lock.dbg.spill = alloca ptr, align 8
  %_4 = alloca ptr, align 8
  store ptr %lock, ptr %lock.dbg.spill, align 8
  call void @llvm.dbg.declare(metadata ptr %lock.dbg.spill, metadata !2742, metadata !DIExpression()), !dbg !2743
  %_3 = getelementptr inbounds %"std::sync::mutex::Mutex<std::collections::hash::map::HashMap<alloc::string::String, alloc::string::String>>", ptr %lock, i32 0, i32 1, !dbg !2744
; call std::sync::poison::Flag::guard
  %1 = call { i8, i8 } @_ZN3std4sync6poison4Flag5guard17h661439bdac53f905E(ptr align 1 %_3), !dbg !2744
  %2 = extractvalue { i8, i8 } %1, 0, !dbg !2744
  %_2.0 = trunc i8 %2 to i1, !dbg !2744
  %_2.1 = extractvalue { i8, i8 } %1, 1, !dbg !2744
  store ptr %lock, ptr %_4, align 8, !dbg !2745
  %3 = load ptr, ptr %_4, align 8, !dbg !2746, !nonnull !28, !align !1389, !noundef !28
; call std::sync::poison::map_result
  call void @_ZN3std4sync6poison10map_result17h4ccd7d985bf0a0eaE(ptr sret(%"core::result::Result<std::sync::mutex::MutexGuard<'_, std::collections::hash::map::HashMap<alloc::string::String, alloc::string::String>>, std::sync::poison::PoisonError<std::sync::mutex::MutexGuard<'_, std::collections::hash::map::HashMap<alloc::string::String, alloc::string::String>>>>") %0, i1 zeroext %_2.0, i8 %_2.1, ptr align 8 %3), !dbg !2746
  ret void, !dbg !2747
}

; std::sync::mutex::MutexGuard<T>::new::{{closure}}
; Function Attrs: inlinehint nonlazybind uwtable
define internal { ptr, i8 } @"_ZN3std4sync5mutex19MutexGuard$LT$T$GT$3new28_$u7b$$u7b$closure$u7d$$u7d$17h850acc95f4314464E"(ptr align 8 %0, i1 zeroext %guard) unnamed_addr #1 !dbg !2748 {
start:
  %guard.dbg.spill = alloca i8, align 1
  %1 = alloca { ptr, i8 }, align 8
  %_1 = alloca ptr, align 8
  store ptr %0, ptr %_1, align 8
  call void @llvm.dbg.declare(metadata ptr %_1, metadata !2758, metadata !DIExpression(DW_OP_deref)), !dbg !2759
  %2 = zext i1 %guard to i8
  store i8 %2, ptr %guard.dbg.spill, align 1
  call void @llvm.dbg.declare(metadata ptr %guard.dbg.spill, metadata !2757, metadata !DIExpression()), !dbg !2760
  %_5 = load ptr, ptr %_1, align 8, !dbg !2761, !nonnull !28, !align !1389, !noundef !28
  store ptr %_5, ptr %1, align 8, !dbg !2762
  %3 = getelementptr inbounds { ptr, i8 }, ptr %1, i32 0, i32 1, !dbg !2762
  %4 = zext i1 %guard to i8, !dbg !2762
  store i8 %4, ptr %3, align 8, !dbg !2762
  %5 = getelementptr inbounds { ptr, i8 }, ptr %1, i32 0, i32 0, !dbg !2763
  %6 = load ptr, ptr %5, align 8, !dbg !2763, !nonnull !28, !align !1389, !noundef !28
  %7 = getelementptr inbounds { ptr, i8 }, ptr %1, i32 0, i32 1, !dbg !2763
  %8 = load i8, ptr %7, align 8, !dbg !2763, !range !1772, !noundef !28
  %9 = trunc i8 %8 to i1, !dbg !2763
  %10 = zext i1 %9 to i8, !dbg !2763
  %11 = insertvalue { ptr, i8 } undef, ptr %6, 0, !dbg !2763
  %12 = insertvalue { ptr, i8 } %11, i8 %10, 1, !dbg !2763
  ret { ptr, i8 } %12, !dbg !2763
}

; std::sync::poison::map_result
; Function Attrs: nonlazybind uwtable
define internal void @_ZN3std4sync6poison10map_result17h4ccd7d985bf0a0eaE(ptr sret(%"core::result::Result<std::sync::mutex::MutexGuard<'_, std::collections::hash::map::HashMap<alloc::string::String, alloc::string::String>>, std::sync::poison::PoisonError<std::sync::mutex::MutexGuard<'_, std::collections::hash::map::HashMap<alloc::string::String, alloc::string::String>>>>") %0, i1 zeroext %1, i8 %2, ptr align 8 %f) unnamed_addr #0 !dbg !2764 {
start:
  %t.dbg.spill = alloca i8, align 1
  %guard.dbg.spill = alloca i8, align 1
  %f.dbg.spill = alloca ptr, align 8
  %_13 = alloca i8, align 1
  %_7 = alloca i8, align 1
  %result = alloca { i8, i8 }, align 1
  %3 = getelementptr inbounds { i8, i8 }, ptr %result, i32 0, i32 0
  %4 = zext i1 %1 to i8
  store i8 %4, ptr %3, align 1
  %5 = getelementptr inbounds { i8, i8 }, ptr %result, i32 0, i32 1
  store i8 %2, ptr %5, align 1
  call void @llvm.dbg.declare(metadata ptr %result, metadata !2788, metadata !DIExpression()), !dbg !2797
  store ptr %f, ptr %f.dbg.spill, align 8
  call void @llvm.dbg.declare(metadata ptr %f.dbg.spill, metadata !2789, metadata !DIExpression()), !dbg !2798
  %6 = load i8, ptr %result, align 1, !dbg !2799, !range !1772, !noundef !28
  %7 = trunc i8 %6 to i1, !dbg !2799
  %_3 = zext i1 %7 to i64, !dbg !2799
  %8 = icmp eq i64 %_3, 0, !dbg !2800
  br i1 %8, label %bb3, label %bb1, !dbg !2800

bb3:                                              ; preds = %start
  %9 = getelementptr inbounds { i8, i8 }, ptr %result, i32 0, i32 1, !dbg !2801
  %10 = load i8, ptr %9, align 1, !dbg !2801, !range !1772, !noundef !28
  %t = trunc i8 %10 to i1, !dbg !2801
  %11 = zext i1 %t to i8, !dbg !2801
  store i8 %11, ptr %t.dbg.spill, align 1, !dbg !2801
  call void @llvm.dbg.declare(metadata ptr %t.dbg.spill, metadata !2790, metadata !DIExpression()), !dbg !2802
  %12 = zext i1 %t to i8, !dbg !2803
  store i8 %12, ptr %_7, align 1, !dbg !2803
  %13 = load i8, ptr %_7, align 1, !dbg !2803, !range !1772, !noundef !28
  %14 = trunc i8 %13 to i1, !dbg !2803
; call std::sync::mutex::MutexGuard<T>::new::{{closure}}
  %15 = call { ptr, i8 } @"_ZN3std4sync5mutex19MutexGuard$LT$T$GT$3new28_$u7b$$u7b$closure$u7d$$u7d$17h850acc95f4314464E"(ptr align 8 %f, i1 zeroext %14), !dbg !2803
  %_5.0 = extractvalue { ptr, i8 } %15, 0, !dbg !2803
  %16 = extractvalue { ptr, i8 } %15, 1, !dbg !2803
  %_5.1 = trunc i8 %16 to i1, !dbg !2803
  %17 = getelementptr inbounds %"core::result::Result<std::sync::mutex::MutexGuard<'_, std::collections::hash::map::HashMap<alloc::string::String, alloc::string::String>>, std::sync::poison::PoisonError<std::sync::mutex::MutexGuard<'_, std::collections::hash::map::HashMap<alloc::string::String, alloc::string::String>>>>::Ok", ptr %0, i32 0, i32 1, !dbg !2804
  %18 = getelementptr inbounds { ptr, i8 }, ptr %17, i32 0, i32 0, !dbg !2804
  store ptr %_5.0, ptr %18, align 8, !dbg !2804
  %19 = getelementptr inbounds { ptr, i8 }, ptr %17, i32 0, i32 1, !dbg !2804
  %20 = zext i1 %_5.1 to i8, !dbg !2804
  store i8 %20, ptr %19, align 8, !dbg !2804
  store i64 0, ptr %0, align 8, !dbg !2804
  br label %bb7, !dbg !2805

bb1:                                              ; preds = %start
  %21 = getelementptr inbounds { i8, i8 }, ptr %result, i32 0, i32 1, !dbg !2806
  %22 = load i8, ptr %21, align 1, !dbg !2806, !range !1772, !noundef !28
  %guard = trunc i8 %22 to i1, !dbg !2806
  %23 = zext i1 %guard to i8, !dbg !2806
  store i8 %23, ptr %guard.dbg.spill, align 1, !dbg !2806
  call void @llvm.dbg.declare(metadata ptr %guard.dbg.spill, metadata !2792, metadata !DIExpression()), !dbg !2807
  %24 = zext i1 %guard to i8, !dbg !2808
  store i8 %24, ptr %_13, align 1, !dbg !2808
  %25 = load i8, ptr %_13, align 1, !dbg !2808, !range !1772, !noundef !28
  %26 = trunc i8 %25 to i1, !dbg !2808
; call std::sync::mutex::MutexGuard<T>::new::{{closure}}
  %27 = call { ptr, i8 } @"_ZN3std4sync5mutex19MutexGuard$LT$T$GT$3new28_$u7b$$u7b$closure$u7d$$u7d$17h850acc95f4314464E"(ptr align 8 %f, i1 zeroext %26), !dbg !2808
  %_11.0 = extractvalue { ptr, i8 } %27, 0, !dbg !2808
  %28 = extractvalue { ptr, i8 } %27, 1, !dbg !2808
  %_11.1 = trunc i8 %28 to i1, !dbg !2808
; call std::sync::poison::PoisonError<T>::new
  %29 = call { ptr, i8 } @"_ZN3std4sync6poison20PoisonError$LT$T$GT$3new17h3b24547c27573c15E"(ptr align 8 %_11.0, i1 zeroext %_11.1), !dbg !2809
  %_10.0 = extractvalue { ptr, i8 } %29, 0, !dbg !2809
  %30 = extractvalue { ptr, i8 } %29, 1, !dbg !2809
  %_10.1 = trunc i8 %30 to i1, !dbg !2809
  %31 = getelementptr inbounds %"core::result::Result<std::sync::mutex::MutexGuard<'_, std::collections::hash::map::HashMap<alloc::string::String, alloc::string::String>>, std::sync::poison::PoisonError<std::sync::mutex::MutexGuard<'_, std::collections::hash::map::HashMap<alloc::string::String, alloc::string::String>>>>::Err", ptr %0, i32 0, i32 1, !dbg !2810
  %32 = getelementptr inbounds { ptr, i8 }, ptr %31, i32 0, i32 0, !dbg !2810
  store ptr %_10.0, ptr %32, align 8, !dbg !2810
  %33 = getelementptr inbounds { ptr, i8 }, ptr %31, i32 0, i32 1, !dbg !2810
  %34 = zext i1 %_10.1 to i8, !dbg !2810
  store i8 %34, ptr %33, align 8, !dbg !2810
  store i64 1, ptr %0, align 8, !dbg !2810
  br label %bb7, !dbg !2811

bb2:                                              ; No predecessors!
  unreachable, !dbg !2799

bb7:                                              ; preds = %bb3, %bb1
  ret void, !dbg !2812
}

; std::sync::poison::PoisonError<T>::new
; Function Attrs: nonlazybind uwtable
define internal { ptr, i8 } @"_ZN3std4sync6poison20PoisonError$LT$T$GT$3new17h3b24547c27573c15E"(ptr align 8 %guard.0, i1 zeroext %guard.1) unnamed_addr #0 !dbg !2813 {
start:
  %guard.dbg.spill = alloca { ptr, i8 }, align 8
  %0 = alloca { ptr, i8 }, align 8
  %1 = getelementptr inbounds { ptr, i8 }, ptr %guard.dbg.spill, i32 0, i32 0
  store ptr %guard.0, ptr %1, align 8
  %2 = getelementptr inbounds { ptr, i8 }, ptr %guard.dbg.spill, i32 0, i32 1
  %3 = zext i1 %guard.1 to i8
  store i8 %3, ptr %2, align 8
  call void @llvm.dbg.declare(metadata ptr %guard.dbg.spill, metadata !2817, metadata !DIExpression()), !dbg !2818
  %4 = getelementptr inbounds { ptr, i8 }, ptr %0, i32 0, i32 0, !dbg !2819
  store ptr %guard.0, ptr %4, align 8, !dbg !2819
  %5 = getelementptr inbounds { ptr, i8 }, ptr %0, i32 0, i32 1, !dbg !2819
  %6 = zext i1 %guard.1 to i8, !dbg !2819
  store i8 %6, ptr %5, align 8, !dbg !2819
  %7 = getelementptr inbounds { ptr, i8 }, ptr %0, i32 0, i32 0, !dbg !2820
  %8 = load ptr, ptr %7, align 8, !dbg !2820, !nonnull !28, !align !1389, !noundef !28
  %9 = getelementptr inbounds { ptr, i8 }, ptr %0, i32 0, i32 1, !dbg !2820
  %10 = load i8, ptr %9, align 8, !dbg !2820, !range !1772, !noundef !28
  %11 = trunc i8 %10 to i1, !dbg !2820
  %12 = zext i1 %11 to i8, !dbg !2820
  %13 = insertvalue { ptr, i8 } undef, ptr %8, 0, !dbg !2820
  %14 = insertvalue { ptr, i8 } %13, i8 %12, 1, !dbg !2820
  ret { ptr, i8 } %14, !dbg !2820
}

; std::sync::poison::PoisonError<T>::new
; Function Attrs: nonlazybind uwtable
define internal zeroext i1 @"_ZN3std4sync6poison20PoisonError$LT$T$GT$3new17hbf7c610beccc9e3bE"(i1 zeroext %guard) unnamed_addr #0 !dbg !2821 {
start:
  %guard.dbg.spill = alloca i8, align 1
  %0 = alloca i8, align 1
  %1 = zext i1 %guard to i8
  store i8 %1, ptr %guard.dbg.spill, align 1
  call void @llvm.dbg.declare(metadata ptr %guard.dbg.spill, metadata !2825, metadata !DIExpression()), !dbg !2826
  %2 = zext i1 %guard to i8, !dbg !2827
  store i8 %2, ptr %0, align 1, !dbg !2827
  %3 = load i8, ptr %0, align 1, !dbg !2828, !range !1772, !noundef !28
  %4 = trunc i8 %3 to i1, !dbg !2828
  ret i1 %4, !dbg !2828
}

; std::sync::poison::Flag::done
; Function Attrs: inlinehint nonlazybind uwtable
define internal void @_ZN3std4sync6poison4Flag4done17h6c27d059485e9052E(ptr align 1 %self, ptr align 1 %guard) unnamed_addr #1 !dbg !2829 {
start:
  %self.dbg.spill2 = alloca ptr, align 8
  %self.dbg.spill1 = alloca ptr, align 8
  %guard.dbg.spill = alloca ptr, align 8
  %self.dbg.spill = alloca ptr, align 8
  %_3 = alloca i8, align 1
  store ptr %self, ptr %self.dbg.spill, align 8
  call void @llvm.dbg.declare(metadata ptr %self.dbg.spill, metadata !2835, metadata !DIExpression()), !dbg !2837
  store ptr %guard, ptr %guard.dbg.spill, align 8
  call void @llvm.dbg.declare(metadata ptr %guard.dbg.spill, metadata !2836, metadata !DIExpression()), !dbg !2838
  %0 = load i8, ptr %guard, align 1, !dbg !2839, !range !1772, !noundef !28
  %_5 = trunc i8 %0 to i1, !dbg !2839
  %_4 = xor i1 %_5, true, !dbg !2840
  br i1 %_4, label %bb2, label %bb1, !dbg !2840

bb1:                                              ; preds = %start
  store i8 0, ptr %_3, align 1, !dbg !2840
  br label %bb3, !dbg !2840

bb2:                                              ; preds = %start
; call std::panicking::panic_count::count_is_zero
  %_9 = call zeroext i1 @_ZN3std9panicking11panic_count13count_is_zero17h41afe3ea2eff56a8E(), !dbg !2841
  %_6 = xor i1 %_9, true, !dbg !2850
  %1 = zext i1 %_6 to i8, !dbg !2840
  store i8 %1, ptr %_3, align 1, !dbg !2840
  br label %bb3, !dbg !2840

bb3:                                              ; preds = %bb1, %bb2
  %2 = load i8, ptr %_3, align 1, !dbg !2840, !range !1772, !noundef !28
  %3 = trunc i8 %2 to i1, !dbg !2840
  br i1 %3, label %bb4, label %bb5, !dbg !2840

bb5:                                              ; preds = %bb4, %bb3
  ret void, !dbg !2851

bb4:                                              ; preds = %bb3
  store ptr %self, ptr %self.dbg.spill1, align 8, !dbg !2852
  call void @llvm.dbg.declare(metadata ptr %self.dbg.spill1, metadata !2853, metadata !DIExpression()), !dbg !2861
  store ptr %self, ptr %self.dbg.spill2, align 8, !dbg !2863
  call void @llvm.dbg.declare(metadata ptr %self.dbg.spill2, metadata !2864, metadata !DIExpression()), !dbg !2870
; call core::sync::atomic::atomic_store
  call void @_ZN4core4sync6atomic12atomic_store17hd7992358df35ad1bE(ptr %self, i8 1, i8 0), !dbg !2872
  br label %bb5, !dbg !2873
}

; std::sync::poison::Flag::guard
; Function Attrs: inlinehint nonlazybind uwtable
define internal { i8, i8 } @_ZN3std4sync6poison4Flag5guard17h661439bdac53f905E(ptr align 1 %self) unnamed_addr #1 !dbg !2874 {
start:
  %self.dbg.spill3 = alloca ptr, align 8
  %self.dbg.spill2 = alloca ptr, align 8
  %self.dbg.spill1 = alloca ptr, align 8
  %self.dbg.spill = alloca ptr, align 8
  %ret = alloca i8, align 1
  %0 = alloca { i8, i8 }, align 1
  store ptr %self, ptr %self.dbg.spill, align 8
  call void @llvm.dbg.declare(metadata ptr %self.dbg.spill, metadata !2878, metadata !DIExpression()), !dbg !2881
  call void @llvm.dbg.declare(metadata ptr %ret, metadata !2879, metadata !DIExpression()), !dbg !2882
; call std::panicking::panic_count::count_is_zero
  %_8 = call zeroext i1 @_ZN3std9panicking11panic_count13count_is_zero17h41afe3ea2eff56a8E(), !dbg !2883
  %_3 = xor i1 %_8, true, !dbg !2888
  %1 = zext i1 %_3 to i8, !dbg !2889
  store i8 %1, ptr %ret, align 1, !dbg !2889
  store ptr %self, ptr %self.dbg.spill1, align 8, !dbg !2890
  call void @llvm.dbg.declare(metadata ptr %self.dbg.spill1, metadata !2891, metadata !DIExpression()), !dbg !2896
  store ptr %self, ptr %self.dbg.spill2, align 8, !dbg !2898
  call void @llvm.dbg.declare(metadata ptr %self.dbg.spill2, metadata !2899, metadata !DIExpression()), !dbg !2905
  store ptr %self, ptr %self.dbg.spill3, align 8, !dbg !2907
  call void @llvm.dbg.declare(metadata ptr %self.dbg.spill3, metadata !2908, metadata !DIExpression()), !dbg !2911
; call core::sync::atomic::atomic_load
  %_11 = call i8 @_ZN4core4sync6atomic11atomic_load17h904113dc4c26d6c0E(ptr %self, i8 0), !dbg !2913
  %2 = icmp eq i8 %_11, 0, !dbg !2890
  br i1 %2, label %bb3, label %bb1, !dbg !2890

bb3:                                              ; preds = %start
  %3 = load i8, ptr %ret, align 1, !dbg !2914, !range !1772, !noundef !28
  %_7 = trunc i8 %3 to i1, !dbg !2914
  %4 = getelementptr inbounds { i8, i8 }, ptr %0, i32 0, i32 1, !dbg !2915
  %5 = zext i1 %_7 to i8, !dbg !2915
  store i8 %5, ptr %4, align 1, !dbg !2915
  store i8 0, ptr %0, align 1, !dbg !2915
  br label %bb4, !dbg !2916

bb1:                                              ; preds = %start
  %6 = load i8, ptr %ret, align 1, !dbg !2917, !range !1772, !noundef !28
  %_6 = trunc i8 %6 to i1, !dbg !2917
; call std::sync::poison::PoisonError<T>::new
  %_5 = call zeroext i1 @"_ZN3std4sync6poison20PoisonError$LT$T$GT$3new17hbf7c610beccc9e3bE"(i1 zeroext %_6), !dbg !2918
  %7 = getelementptr inbounds { i8, i8 }, ptr %0, i32 0, i32 1, !dbg !2919
  %8 = zext i1 %_5 to i8, !dbg !2919
  store i8 %8, ptr %7, align 1, !dbg !2919
  store i8 1, ptr %0, align 1, !dbg !2919
  br label %bb4, !dbg !2916

bb4:                                              ; preds = %bb3, %bb1
  %9 = getelementptr inbounds { i8, i8 }, ptr %0, i32 0, i32 0, !dbg !2920
  %10 = load i8, ptr %9, align 1, !dbg !2920, !range !1772, !noundef !28
  %11 = trunc i8 %10 to i1, !dbg !2920
  %12 = getelementptr inbounds { i8, i8 }, ptr %0, i32 0, i32 1, !dbg !2920
  %13 = load i8, ptr %12, align 1, !dbg !2920, !noundef !28
  %14 = zext i1 %11 to i8, !dbg !2920
  %15 = insertvalue { i8, i8 } undef, i8 %14, 0, !dbg !2920
  %16 = insertvalue { i8, i8 } %15, i8 %13, 1, !dbg !2920
  ret { i8, i8 } %16, !dbg !2920
}

; std::panic::catch_unwind
; Function Attrs: nonlazybind uwtable
define internal { ptr, ptr } @_ZN3std5panic12catch_unwind17h6899f9b590c379caE(ptr align 8 %f) unnamed_addr #0 !dbg !2921 {
start:
  %f.dbg.spill = alloca ptr, align 8
  store ptr %f, ptr %f.dbg.spill, align 8
  call void @llvm.dbg.declare(metadata ptr %f.dbg.spill, metadata !2927, metadata !DIExpression()), !dbg !2930
; call std::panicking::try
  %0 = call { ptr, ptr } @_ZN3std9panicking3try17hd8c5c2cc48ea3950E(ptr align 8 %f), !dbg !2931
  %1 = extractvalue { ptr, ptr } %0, 0, !dbg !2931
  %2 = extractvalue { ptr, ptr } %0, 1, !dbg !2931
  %3 = insertvalue { ptr, ptr } undef, ptr %1, 0, !dbg !2932
  %4 = insertvalue { ptr, ptr } %3, ptr %2, 1, !dbg !2932
  ret { ptr, ptr } %4, !dbg !2932
}

; std::panic::catch_unwind
; Function Attrs: nonlazybind uwtable
define internal { ptr, ptr } @_ZN3std5panic12catch_unwind17h941354c139373a9dE(ptr align 8 %f) unnamed_addr #0 !dbg !2933 {
start:
  %f.dbg.spill = alloca ptr, align 8
  store ptr %f, ptr %f.dbg.spill, align 8
  call void @llvm.dbg.declare(metadata ptr %f.dbg.spill, metadata !2937, metadata !DIExpression()), !dbg !2940
; call std::panicking::try
  %0 = call { ptr, ptr } @_ZN3std9panicking3try17h0969cc77edad10a3E(ptr align 8 %f), !dbg !2941
  %1 = extractvalue { ptr, ptr } %0, 0, !dbg !2941
  %2 = extractvalue { ptr, ptr } %0, 1, !dbg !2941
  %3 = insertvalue { ptr, ptr } undef, ptr %1, 0, !dbg !2942
  %4 = insertvalue { ptr, ptr } %3, ptr %2, 1, !dbg !2942
  ret { ptr, ptr } %4, !dbg !2942
}

; std::panic::catch_unwind
; Function Attrs: nonlazybind uwtable
define internal { ptr, ptr } @_ZN3std5panic12catch_unwind17hf1d223b9c90de2a8E(ptr %f) unnamed_addr #0 !dbg !2943 {
start:
  %_2 = alloca %"core::panic::unwind_safe::AssertUnwindSafe<[closure@std::thread::Builder::spawn_unchecked_<'_, '_, [closure@src/main.rs:18:19: 18:26], ()>::{closure#1}::{closure#0}]>", align 8
  call void @llvm.dbg.declare(metadata ptr %f, metadata !2947, metadata !DIExpression()), !dbg !2950
  call void @llvm.memcpy.p0.p0.i64(ptr align 8 %_2, ptr align 8 %f, i64 56, i1 false), !dbg !2951
; call std::panicking::try
  %0 = call { ptr, ptr } @_ZN3std9panicking3try17h237aca26be4838faE(ptr %_2), !dbg !2952
  %1 = extractvalue { ptr, ptr } %0, 0, !dbg !2952
  %2 = extractvalue { ptr, ptr } %0, 1, !dbg !2952
  %3 = insertvalue { ptr, ptr } undef, ptr %1, 0, !dbg !2953
  %4 = insertvalue { ptr, ptr } %3, ptr %2, 1, !dbg !2953
  ret { ptr, ptr } %4, !dbg !2953
}

; std::thread::JoinInner<T>::join
; Function Attrs: nonlazybind uwtable
define internal { ptr, ptr } @"_ZN3std6thread18JoinInner$LT$T$GT$4join17h1e78f41b2182481eE"(ptr %self) unnamed_addr #0 personality ptr @rust_eh_personality !dbg !2954 {
start:
  %self.dbg.spill4 = alloca ptr, align 8
  %self.dbg.spill = alloca ptr, align 8
  %val.dbg.spill = alloca ptr, align 8
  %0 = alloca { ptr, i32 }, align 8
  %_17 = alloca %"core::option::Option<core::result::Result<(), alloc::boxed::Box<dyn core::any::Any + core::marker::Send>>>", align 8
  %self2 = alloca ptr, align 8
  %self1 = alloca %"core::option::Option<core::result::Result<(), alloc::boxed::Box<dyn core::any::Any + core::marker::Send>>>", align 8
  call void @llvm.dbg.declare(metadata ptr %self, metadata !2967, metadata !DIExpression()), !dbg !2968
  call void @llvm.dbg.declare(metadata ptr %self1, metadata !2969, metadata !DIExpression()), !dbg !2976
  call void @llvm.dbg.declare(metadata ptr %self2, metadata !2978, metadata !DIExpression()), !dbg !2999
  %_3 = load i64, ptr %self, align 8, !dbg !3001, !noundef !28
; invoke std::sys::unix::thread::Thread::join
  invoke void @_ZN3std3sys4unix6thread6Thread4join17h4f6592b9a2ad4cc5E(i64 %_3)
          to label %bb1 unwind label %cleanup, !dbg !3001

bb8:                                              ; preds = %cleanup
  %1 = getelementptr inbounds %"std::thread::JoinInner<'_, ()>", ptr %self, i32 0, i32 1, !dbg !3002
; invoke core::ptr::drop_in_place<std::thread::Thread>
  invoke void @"_ZN4core3ptr40drop_in_place$LT$std..thread..Thread$GT$17h7b95894615807e11E"(ptr %1) #22
          to label %bb7 unwind label %abort, !dbg !3002

cleanup:                                          ; preds = %bb9, %bb13, %bb11, %bb1, %start
  %2 = landingpad { ptr, i32 }
          cleanup
  %3 = extractvalue { ptr, i32 } %2, 0
  %4 = extractvalue { ptr, i32 } %2, 1
  %5 = getelementptr inbounds { ptr, i32 }, ptr %0, i32 0, i32 0
  store ptr %3, ptr %5, align 8
  %6 = getelementptr inbounds { ptr, i32 }, ptr %0, i32 0, i32 1
  store i32 %4, ptr %6, align 8
  br label %bb8

bb1:                                              ; preds = %start
  %_11 = getelementptr inbounds %"std::thread::JoinInner<'_, ()>", ptr %self, i32 0, i32 2, !dbg !3003
; invoke alloc::sync::Arc<T>::get_mut
  %7 = invoke align 8 ptr @"_ZN5alloc4sync12Arc$LT$T$GT$7get_mut17h5589fc7dd837aa31E"(ptr align 8 %_11)
          to label %bb2 unwind label %cleanup, !dbg !3004

bb2:                                              ; preds = %bb1
  store ptr %7, ptr %self2, align 8, !dbg !3004
  %8 = load ptr, ptr %self2, align 8, !dbg !3005, !noundef !28
  %9 = ptrtoint ptr %8 to i64, !dbg !3005
  %10 = icmp eq i64 %9, 0, !dbg !3005
  %_12 = select i1 %10, i64 0, i64 1, !dbg !3005
  %11 = icmp eq i64 %_12, 0, !dbg !3006
  br i1 %11, label %bb9, label %bb11, !dbg !3006

bb9:                                              ; preds = %bb2
; invoke core::panicking::panic
  invoke void @_ZN4core9panicking5panic17h90931f06a97cc5e0E(ptr align 1 @alloc308, i64 43, ptr align 8 @alloc310) #21
          to label %unreachable unwind label %cleanup, !dbg !3007

bb11:                                             ; preds = %bb2
  %val = load ptr, ptr %self2, align 8, !dbg !3008, !nonnull !28, !align !1389, !noundef !28
  store ptr %val, ptr %val.dbg.spill, align 8, !dbg !3008
  call void @llvm.dbg.declare(metadata ptr %val.dbg.spill, metadata !2997, metadata !DIExpression()), !dbg !3009
  %self3 = getelementptr inbounds %"std::thread::Packet<'_, ()>", ptr %val, i32 0, i32 2, !dbg !3004
  store ptr %self3, ptr %self.dbg.spill, align 8, !dbg !3004
  call void @llvm.dbg.declare(metadata ptr %self.dbg.spill, metadata !3010, metadata !DIExpression()), !dbg !3016
  store ptr %self3, ptr %self.dbg.spill4, align 8, !dbg !3004
  call void @llvm.dbg.declare(metadata ptr %self.dbg.spill4, metadata !3018, metadata !DIExpression()), !dbg !3023
  store i64 0, ptr %_17, align 8, !dbg !3025
; invoke core::mem::replace
  invoke void @_ZN4core3mem7replace17h7c02bcfacaf51df9E(ptr sret(%"core::option::Option<core::result::Result<(), alloc::boxed::Box<dyn core::any::Any + core::marker::Send>>>") %self1, ptr align 8 %self3, ptr %_17)
          to label %bb12 unwind label %cleanup, !dbg !3026

bb10:                                             ; No predecessors!
  unreachable, !dbg !3005

bb12:                                             ; preds = %bb11
  %_18 = load i64, ptr %self1, align 8, !dbg !3027, !range !1419, !noundef !28
  %12 = icmp eq i64 %_18, 0, !dbg !3028
  br i1 %12, label %bb13, label %bb15, !dbg !3028

bb13:                                             ; preds = %bb12
; invoke core::panicking::panic
  invoke void @_ZN4core9panicking5panic17h90931f06a97cc5e0E(ptr align 1 @alloc308, i64 43, ptr align 8 @alloc307) #21
          to label %unreachable unwind label %cleanup, !dbg !3029

bb15:                                             ; preds = %bb12
  %13 = getelementptr inbounds %"core::option::Option<core::result::Result<(), alloc::boxed::Box<dyn core::any::Any + core::marker::Send>>>::Some", ptr %self1, i32 0, i32 1, !dbg !3030
  %14 = getelementptr inbounds { ptr, ptr }, ptr %13, i32 0, i32 0, !dbg !3030
  %15 = load ptr, ptr %14, align 8, !dbg !3030, !align !1561, !noundef !28
  %16 = getelementptr inbounds { ptr, ptr }, ptr %13, i32 0, i32 1, !dbg !3030
  %17 = load ptr, ptr %16, align 8, !dbg !3030
  %18 = getelementptr inbounds %"std::thread::JoinInner<'_, ()>", ptr %self, i32 0, i32 1, !dbg !3002
; invoke core::ptr::drop_in_place<std::thread::Thread>
  invoke void @"_ZN4core3ptr40drop_in_place$LT$std..thread..Thread$GT$17h7b95894615807e11E"(ptr %18)
          to label %bb6 unwind label %cleanup5, !dbg !3002

bb14:                                             ; No predecessors!
  unreachable, !dbg !3027

bb5:                                              ; preds = %cleanup5
  %19 = getelementptr inbounds %"std::thread::JoinInner<'_, ()>", ptr %self, i32 0, i32 2, !dbg !3002
; invoke core::ptr::drop_in_place<alloc::sync::Arc<std::thread::Packet<()>>>
  invoke void @"_ZN4core3ptr80drop_in_place$LT$alloc..sync..Arc$LT$std..thread..Packet$LT$$LP$$RP$$GT$$GT$$GT$17h5f213115f4c5b52dE"(ptr %19) #22
          to label %bb3 unwind label %abort, !dbg !3002

cleanup5:                                         ; preds = %bb15
  %20 = landingpad { ptr, i32 }
          cleanup
  %21 = extractvalue { ptr, i32 } %20, 0
  %22 = extractvalue { ptr, i32 } %20, 1
  %23 = getelementptr inbounds { ptr, i32 }, ptr %0, i32 0, i32 0
  store ptr %21, ptr %23, align 8
  %24 = getelementptr inbounds { ptr, i32 }, ptr %0, i32 0, i32 1
  store i32 %22, ptr %24, align 8
  br label %bb5

bb6:                                              ; preds = %bb15
  %25 = getelementptr inbounds %"std::thread::JoinInner<'_, ()>", ptr %self, i32 0, i32 2, !dbg !3002
; call core::ptr::drop_in_place<alloc::sync::Arc<std::thread::Packet<()>>>
  call void @"_ZN4core3ptr80drop_in_place$LT$alloc..sync..Arc$LT$std..thread..Packet$LT$$LP$$RP$$GT$$GT$$GT$17h5f213115f4c5b52dE"(ptr %25), !dbg !3002
  %26 = insertvalue { ptr, ptr } undef, ptr %15, 0, !dbg !3031
  %27 = insertvalue { ptr, ptr } %26, ptr %17, 1, !dbg !3031
  ret { ptr, ptr } %27, !dbg !3031

abort:                                            ; preds = %bb7, %bb8, %bb5
  %28 = landingpad { ptr, i32 }
          cleanup, !dbg !3032
  %29 = extractvalue { ptr, i32 } %28, 0, !dbg !3032
  %30 = extractvalue { ptr, i32 } %28, 1, !dbg !3032
; call core::panicking::panic_cannot_unwind
  call void @_ZN4core9panicking19panic_cannot_unwind17h42344709dec62f2eE() #23, !dbg !3032
  unreachable, !dbg !3032

bb3:                                              ; preds = %bb7, %bb5
  %31 = load ptr, ptr %0, align 8, !dbg !3032, !noundef !28
  %32 = getelementptr inbounds { ptr, i32 }, ptr %0, i32 0, i32 1, !dbg !3032
  %33 = load i32, ptr %32, align 8, !dbg !3032, !noundef !28
  %34 = insertvalue { ptr, i32 } undef, ptr %31, 0, !dbg !3032
  %35 = insertvalue { ptr, i32 } %34, i32 %33, 1, !dbg !3032
  resume { ptr, i32 } %35, !dbg !3032

unreachable:                                      ; preds = %bb9, %bb13
  unreachable

bb7:                                              ; preds = %bb8
  %36 = getelementptr inbounds %"std::thread::JoinInner<'_, ()>", ptr %self, i32 0, i32 2, !dbg !3002
; invoke core::ptr::drop_in_place<alloc::sync::Arc<std::thread::Packet<()>>>
  invoke void @"_ZN4core3ptr80drop_in_place$LT$alloc..sync..Arc$LT$std..thread..Packet$LT$$LP$$RP$$GT$$GT$$GT$17h5f213115f4c5b52dE"(ptr %36) #22
          to label %bb3 unwind label %abort, !dbg !3002
}

; std::thread::JoinHandle<T>::join
; Function Attrs: nonlazybind uwtable
define internal { ptr, ptr } @"_ZN3std6thread19JoinHandle$LT$T$GT$4join17h6701454128af0aa4E"(ptr %self) unnamed_addr #0 !dbg !3033 {
start:
  %_2 = alloca %"std::thread::JoinInner<'_, ()>", align 8
  call void @llvm.dbg.declare(metadata ptr %self, metadata !3040, metadata !DIExpression()), !dbg !3041
  call void @llvm.memcpy.p0.p0.i64(ptr align 8 %_2, ptr align 8 %self, i64 24, i1 false), !dbg !3042
; call std::thread::JoinInner<T>::join
  %0 = call { ptr, ptr } @"_ZN3std6thread18JoinInner$LT$T$GT$4join17h1e78f41b2182481eE"(ptr %_2), !dbg !3042
  %1 = extractvalue { ptr, ptr } %0, 0, !dbg !3042
  %2 = extractvalue { ptr, ptr } %0, 1, !dbg !3042
  %3 = insertvalue { ptr, ptr } undef, ptr %1, 0, !dbg !3043
  %4 = insertvalue { ptr, ptr } %3, ptr %2, 1, !dbg !3043
  ret { ptr, ptr } %4, !dbg !3043
}

; std::thread::local::LocalKey<T>::with
; Function Attrs: nonlazybind uwtable
define internal { i64, i64 } @"_ZN3std6thread5local17LocalKey$LT$T$GT$4with17h223b624fc3201547E"(ptr align 8 %self) unnamed_addr #0 !dbg !3044 {
start:
  %f.dbg.spill = alloca %"[closure@std::collections::hash::map::RandomState::new::{closure#0}]", align 1
  %self.dbg.spill = alloca ptr, align 8
  %_3 = alloca %"core::result::Result<std::collections::hash::map::RandomState, std::thread::local::AccessError>", align 8
  store ptr %self, ptr %self.dbg.spill, align 8
  call void @llvm.dbg.declare(metadata ptr %self.dbg.spill, metadata !3053, metadata !DIExpression()), !dbg !3058
  call void @llvm.dbg.declare(metadata ptr %f.dbg.spill, metadata !3054, metadata !DIExpression()), !dbg !3059
; call std::thread::local::LocalKey<T>::try_with
  call void @"_ZN3std6thread5local17LocalKey$LT$T$GT$8try_with17hfdf99373b041a9cbE"(ptr sret(%"core::result::Result<std::collections::hash::map::RandomState, std::thread::local::AccessError>") %_3, ptr align 8 %self), !dbg !3060
; call core::result::Result<T,E>::expect
  %0 = call { i64, i64 } @"_ZN4core6result19Result$LT$T$C$E$GT$6expect17h0199726bf8ae2712E"(ptr %_3, ptr align 1 @alloc311, i64 70, ptr align 8 @alloc313), !dbg !3060
  %1 = extractvalue { i64, i64 } %0, 0, !dbg !3060
  %2 = extractvalue { i64, i64 } %0, 1, !dbg !3060
  %3 = insertvalue { i64, i64 } undef, i64 %1, 0, !dbg !3061
  %4 = insertvalue { i64, i64 } %3, i64 %2, 1, !dbg !3061
  ret { i64, i64 } %4, !dbg !3061
}

; std::thread::local::LocalKey<T>::try_with
; Function Attrs: inlinehint nonlazybind uwtable
define internal void @"_ZN3std6thread5local17LocalKey$LT$T$GT$8try_with17hfdf99373b041a9cbE"(ptr sret(%"core::result::Result<std::collections::hash::map::RandomState, std::thread::local::AccessError>") %0, ptr align 8 %self) unnamed_addr #1 personality ptr @rust_eh_personality !dbg !3062 {
start:
  %thread_local.dbg.spill = alloca ptr, align 8
  %val.dbg.spill = alloca ptr, align 8
  %v.dbg.spill6 = alloca ptr, align 8
  %v.dbg.spill = alloca ptr, align 8
  %1 = alloca { ptr, i32 }, align 8
  %t.dbg.spill = alloca %"std::thread::local::AccessError", align 1
  %e.dbg.spill4 = alloca %"std::thread::local::AccessError", align 1
  %e.dbg.spill = alloca %"std::thread::local::AccessError", align 1
  %residual.dbg.spill3 = alloca %"core::result::Result<core::convert::Infallible, std::thread::local::AccessError>::Err", align 1
  %residual.dbg.spill = alloca %"core::result::Result<core::convert::Infallible, std::thread::local::AccessError>::Err", align 1
  %err.dbg.spill = alloca %"std::thread::local::AccessError", align 1
  %f.dbg.spill = alloca %"[closure@std::collections::hash::map::RandomState::new::{closure#0}]", align 1
  %self.dbg.spill = alloca ptr, align 8
  %_18 = alloca i8, align 1
  %_16 = alloca ptr, align 8
  %_8 = alloca ptr, align 8
  %self2 = alloca ptr, align 8
  %self1 = alloca ptr, align 8
  %_4 = alloca ptr, align 8
  store ptr %self, ptr %self.dbg.spill, align 8
  call void @llvm.dbg.declare(metadata ptr %self.dbg.spill, metadata !3082, metadata !DIExpression()), !dbg !3108
  call void @llvm.dbg.declare(metadata ptr %f.dbg.spill, metadata !3083, metadata !DIExpression()), !dbg !3109
  call void @llvm.dbg.declare(metadata ptr %self1, metadata !3110, metadata !DIExpression()), !dbg !3151
  call void @llvm.dbg.declare(metadata ptr %self2, metadata !3153, metadata !DIExpression()), !dbg !3161
  call void @llvm.dbg.declare(metadata ptr %err.dbg.spill, metadata !3158, metadata !DIExpression()), !dbg !3163
  call void @llvm.dbg.declare(metadata ptr %residual.dbg.spill, metadata !3086, metadata !DIExpression()), !dbg !3164
  call void @llvm.dbg.declare(metadata ptr %residual.dbg.spill3, metadata !3165, metadata !DIExpression()), !dbg !3175
  call void @llvm.dbg.declare(metadata ptr %e.dbg.spill, metadata !3149, metadata !DIExpression()), !dbg !3177
  call void @llvm.dbg.declare(metadata ptr %e.dbg.spill4, metadata !3171, metadata !DIExpression()), !dbg !3178
  call void @llvm.dbg.declare(metadata ptr %t.dbg.spill, metadata !3179, metadata !DIExpression()), !dbg !3188
  store i8 1, ptr %_18, align 1, !dbg !3190
  %_7 = load ptr, ptr %self, align 8, !dbg !3152, !nonnull !28, !noundef !28
  store ptr null, ptr %_8, align 8, !dbg !3191
  %2 = load ptr, ptr %_8, align 8, !dbg !3152, !align !1389, !noundef !28
  %3 = invoke align 8 ptr %_7(ptr align 8 %2)
          to label %bb1 unwind label %cleanup, !dbg !3152

bb10:                                             ; preds = %cleanup
  %4 = load i8, ptr %_18, align 1, !dbg !3192, !range !1772, !noundef !28
  %5 = trunc i8 %4 to i1, !dbg !3192
  br i1 %5, label %bb9, label %bb8, !dbg !3192

cleanup:                                          ; preds = %bb3, %start
  %6 = landingpad { ptr, i32 }
          cleanup
  %7 = extractvalue { ptr, i32 } %6, 0
  %8 = extractvalue { ptr, i32 } %6, 1
  %9 = getelementptr inbounds { ptr, i32 }, ptr %1, i32 0, i32 0
  store ptr %7, ptr %9, align 8
  %10 = getelementptr inbounds { ptr, i32 }, ptr %1, i32 0, i32 1
  store i32 %8, ptr %10, align 8
  br label %bb10

bb1:                                              ; preds = %start
  store ptr %3, ptr %self2, align 8, !dbg !3152
  %11 = load ptr, ptr %self2, align 8, !dbg !3193, !noundef !28
  %12 = ptrtoint ptr %11 to i64, !dbg !3193
  %13 = icmp eq i64 %12, 0, !dbg !3193
  %_19 = select i1 %13, i64 0, i64 1, !dbg !3193
  %14 = icmp eq i64 %_19, 0, !dbg !3194
  br i1 %14, label %bb11, label %bb13, !dbg !3194

bb11:                                             ; preds = %bb1
  store ptr null, ptr %self1, align 8, !dbg !3195
  br label %bb14, !dbg !3196

bb13:                                             ; preds = %bb1
  %v = load ptr, ptr %self2, align 8, !dbg !3197, !nonnull !28, !align !1389, !noundef !28
  store ptr %v, ptr %v.dbg.spill, align 8, !dbg !3197
  call void @llvm.dbg.declare(metadata ptr %v.dbg.spill, metadata !3159, metadata !DIExpression()), !dbg !3198
  store ptr %v, ptr %self1, align 8, !dbg !3199
  br label %bb14, !dbg !3200

bb12:                                             ; No predecessors!
  unreachable, !dbg !3193

bb14:                                             ; preds = %bb11, %bb13
  %15 = load ptr, ptr %self1, align 8, !dbg !3201, !noundef !28
  %16 = ptrtoint ptr %15 to i64, !dbg !3201
  %17 = icmp eq i64 %16, 0, !dbg !3201
  %_22 = select i1 %17, i64 1, i64 0, !dbg !3201
  %18 = icmp eq i64 %_22, 0, !dbg !3202
  br i1 %18, label %bb17, label %bb15, !dbg !3202

bb17:                                             ; preds = %bb14
  %v5 = load ptr, ptr %self1, align 8, !dbg !3203, !nonnull !28, !align !1389, !noundef !28
  store ptr %v5, ptr %v.dbg.spill6, align 8, !dbg !3203
  call void @llvm.dbg.declare(metadata ptr %v.dbg.spill6, metadata !3147, metadata !DIExpression()), !dbg !3204
  store ptr %v5, ptr %_4, align 8, !dbg !3205
  br label %bb2, !dbg !3206

bb15:                                             ; preds = %bb14
  store ptr null, ptr %_4, align 8, !dbg !3207
  br label %bb2, !dbg !3208

bb16:                                             ; No predecessors!
  unreachable, !dbg !3201

bb2:                                              ; preds = %bb17, %bb15
  %19 = load ptr, ptr %_4, align 8, !dbg !3152, !noundef !28
  %20 = ptrtoint ptr %19 to i64, !dbg !3152
  %21 = icmp eq i64 %20, 0, !dbg !3152
  %_10 = select i1 %21, i64 1, i64 0, !dbg !3152
  %22 = icmp eq i64 %_10, 0, !dbg !3152
  br i1 %22, label %bb3, label %bb5, !dbg !3152

bb3:                                              ; preds = %bb2
  %val = load ptr, ptr %_4, align 8, !dbg !3152, !nonnull !28, !align !1389, !noundef !28
  store ptr %val, ptr %val.dbg.spill, align 8, !dbg !3152
  call void @llvm.dbg.declare(metadata ptr %val.dbg.spill, metadata !3106, metadata !DIExpression()), !dbg !3209
  store ptr %val, ptr %thread_local.dbg.spill, align 8, !dbg !3209
  call void @llvm.dbg.declare(metadata ptr %thread_local.dbg.spill, metadata !3084, metadata !DIExpression()), !dbg !3210
  store i8 0, ptr %_18, align 1, !dbg !3211
  store ptr %val, ptr %_16, align 8, !dbg !3211
  %23 = load ptr, ptr %_16, align 8, !dbg !3211, !nonnull !28, !align !1389, !noundef !28
; invoke std::collections::hash::map::RandomState::new::{{closure}}
  %24 = invoke { i64, i64 } @"_ZN3std11collections4hash3map11RandomState3new28_$u7b$$u7b$closure$u7d$$u7d$17h538edca5b86a3a4cE"(ptr align 8 %23)
          to label %bb6 unwind label %cleanup, !dbg !3211

bb5:                                              ; preds = %bb2
  store i64 1, ptr %0, align 8, !dbg !3212
  br label %bb7, !dbg !3192

bb4:                                              ; No predecessors!
  unreachable, !dbg !3152

bb7:                                              ; preds = %bb6, %bb5
  ret void, !dbg !3213

bb6:                                              ; preds = %bb3
  %_14.0 = extractvalue { i64, i64 } %24, 0, !dbg !3211
  %_14.1 = extractvalue { i64, i64 } %24, 1, !dbg !3211
  %25 = getelementptr inbounds %"core::result::Result<std::collections::hash::map::RandomState, std::thread::local::AccessError>::Ok", ptr %0, i32 0, i32 1, !dbg !3214
  %26 = getelementptr inbounds { i64, i64 }, ptr %25, i32 0, i32 0, !dbg !3214
  store i64 %_14.0, ptr %26, align 8, !dbg !3214
  %27 = getelementptr inbounds { i64, i64 }, ptr %25, i32 0, i32 1, !dbg !3214
  store i64 %_14.1, ptr %27, align 8, !dbg !3214
  store i64 0, ptr %0, align 8, !dbg !3214
  br label %bb7, !dbg !3192

bb8:                                              ; preds = %bb9, %bb10
  %28 = load ptr, ptr %1, align 8, !dbg !3215, !noundef !28
  %29 = getelementptr inbounds { ptr, i32 }, ptr %1, i32 0, i32 1, !dbg !3215
  %30 = load i32, ptr %29, align 8, !dbg !3215, !noundef !28
  %31 = insertvalue { ptr, i32 } undef, ptr %28, 0, !dbg !3215
  %32 = insertvalue { ptr, i32 } %31, i32 %30, 1, !dbg !3215
  resume { ptr, i32 } %32, !dbg !3215

bb9:                                              ; preds = %bb10
  br label %bb8, !dbg !3192
}

; std::thread::local::fast::Key<T>::try_initialize
; Function Attrs: noinline nonlazybind uwtable
define internal align 8 ptr @"_ZN3std6thread5local4fast12Key$LT$T$GT$14try_initialize17h54c792e425df0a44E"(ptr align 8 %self, ptr align 8 %init) unnamed_addr #2 personality ptr @rust_eh_personality !dbg !3216 {
start:
  %0 = alloca { ptr, i32 }, align 8
  %1 = alloca i8, align 1
  %init.dbg.spill = alloca ptr, align 8
  %self.dbg.spill = alloca ptr, align 8
  %_12 = alloca i8, align 1
  %_3 = alloca i8, align 1
  %2 = alloca ptr, align 8
  store ptr %self, ptr %self.dbg.spill, align 8
  call void @llvm.dbg.declare(metadata ptr %self.dbg.spill, metadata !3221, metadata !DIExpression()), !dbg !3225
  store ptr %init, ptr %init.dbg.spill, align 8
  call void @llvm.dbg.declare(metadata ptr %init.dbg.spill, metadata !3222, metadata !DIExpression()), !dbg !3226
  store i8 1, ptr %_12, align 1, !dbg !3227
  store i8 0, ptr %1, align 1, !dbg !3228
  %3 = load i8, ptr %1, align 1, !dbg !3228, !range !1772, !noundef !28
  %_5 = trunc i8 %3 to i1, !dbg !3228
  br label %bb14, !dbg !3228

bb14:                                             ; preds = %start
  %_4 = xor i1 %_5, true, !dbg !3227
  br i1 %_4, label %bb1, label %bb2, !dbg !3227

bb2:                                              ; preds = %bb14
; invoke std::thread::local::fast::Key<T>::try_register_dtor
  %_6 = invoke zeroext i1 @"_ZN3std6thread5local4fast12Key$LT$T$GT$17try_register_dtor17h58c8aed0db98703fE"(ptr align 8 %self)
          to label %bb4 unwind label %cleanup, !dbg !3232

bb1:                                              ; preds = %bb14
  store i8 1, ptr %_3, align 1, !dbg !3227
  br label %bb3, !dbg !3227

bb3:                                              ; preds = %bb4, %bb1
  %4 = load i8, ptr %_3, align 1, !dbg !3227, !range !1772, !noundef !28
  %5 = trunc i8 %4 to i1, !dbg !3227
  br i1 %5, label %bb5, label %bb7, !dbg !3227

bb13:                                             ; preds = %cleanup
  %6 = load i8, ptr %_12, align 1, !dbg !3233, !range !1772, !noundef !28
  %7 = trunc i8 %6 to i1, !dbg !3233
  br i1 %7, label %bb12, label %bb10, !dbg !3233

cleanup:                                          ; preds = %bb5, %bb2
  %8 = landingpad { ptr, i32 }
          cleanup
  %9 = extractvalue { ptr, i32 } %8, 0
  %10 = extractvalue { ptr, i32 } %8, 1
  %11 = getelementptr inbounds { ptr, i32 }, ptr %0, i32 0, i32 0
  store ptr %9, ptr %11, align 8
  %12 = getelementptr inbounds { ptr, i32 }, ptr %0, i32 0, i32 1
  store i32 %10, ptr %12, align 8
  br label %bb13

bb4:                                              ; preds = %bb2
  %13 = zext i1 %_6 to i8, !dbg !3227
  store i8 %13, ptr %_3, align 1, !dbg !3227
  br label %bb3, !dbg !3227

bb7:                                              ; preds = %bb3
  store ptr null, ptr %2, align 8, !dbg !3234
  br label %bb8, !dbg !3235

bb5:                                              ; preds = %bb3
  store i8 0, ptr %_12, align 1, !dbg !3236
; invoke std::thread::local::lazy::LazyKeyInner<T>::initialize
  %_9 = invoke align 8 ptr @"_ZN3std6thread5local4lazy21LazyKeyInner$LT$T$GT$10initialize17h0e71b98dfe727673E"(ptr align 8 %self, ptr align 8 %init)
          to label %bb6 unwind label %cleanup, !dbg !3237

bb6:                                              ; preds = %bb5
  store ptr %_9, ptr %2, align 8, !dbg !3238
  br label %bb8, !dbg !3235

bb10:                                             ; preds = %bb12, %bb13
  %14 = load ptr, ptr %0, align 8, !dbg !3239, !noundef !28
  %15 = getelementptr inbounds { ptr, i32 }, ptr %0, i32 0, i32 1, !dbg !3239
  %16 = load i32, ptr %15, align 8, !dbg !3239, !noundef !28
  %17 = insertvalue { ptr, i32 } undef, ptr %14, 0, !dbg !3239
  %18 = insertvalue { ptr, i32 } %17, i32 %16, 1, !dbg !3239
  resume { ptr, i32 } %18, !dbg !3239

bb12:                                             ; preds = %bb13
  br label %bb10, !dbg !3233

bb8:                                              ; preds = %bb7, %bb6
  %19 = load i8, ptr %_12, align 1, !dbg !3233, !range !1772, !noundef !28
  %20 = trunc i8 %19 to i1, !dbg !3233
  br i1 %20, label %bb11, label %bb9, !dbg !3233

bb9:                                              ; preds = %bb11, %bb8
  %21 = load ptr, ptr %2, align 8, !dbg !3240, !align !1389, !noundef !28
  ret ptr %21, !dbg !3240

bb11:                                             ; preds = %bb8
  br label %bb9, !dbg !3233
}

; std::thread::local::fast::Key<T>::try_register_dtor
; Function Attrs: nonlazybind uwtable
define internal zeroext i1 @"_ZN3std6thread5local4fast12Key$LT$T$GT$17try_register_dtor17h58c8aed0db98703fE"(ptr align 8 %self) unnamed_addr #0 !dbg !3241 {
start:
  %old.dbg.spill = alloca i8, align 1
  %self.dbg.spill5 = alloca ptr, align 8
  %self.dbg.spill3 = alloca ptr, align 8
  %self.dbg.spill2 = alloca ptr, align 8
  %self.dbg.spill = alloca ptr, align 8
  %_2 = alloca i8, align 1
  %0 = alloca i8, align 1
  store ptr %self, ptr %self.dbg.spill, align 8
  call void @llvm.dbg.declare(metadata ptr %self.dbg.spill, metadata !3245, metadata !DIExpression()), !dbg !3246
  %self1 = getelementptr inbounds %"std::thread::local::fast::Key<core::cell::Cell<(u64, u64)>>", ptr %self, i32 0, i32 1, !dbg !3247
  store ptr %self1, ptr %self.dbg.spill2, align 8, !dbg !3247
  call void @llvm.dbg.declare(metadata ptr %self.dbg.spill2, metadata !3248, metadata !DIExpression()), !dbg !3254
  store ptr %self1, ptr %self.dbg.spill3, align 8, !dbg !3256
  call void @llvm.dbg.declare(metadata ptr %self.dbg.spill3, metadata !3257, metadata !DIExpression()), !dbg !3264
  %1 = load i8, ptr %self1, align 1, !dbg !3266, !range !3267, !noundef !28
  store i8 %1, ptr %_2, align 1, !dbg !3266
  %2 = load i8, ptr %_2, align 1, !dbg !3247, !range !3267, !noundef !28
  %_4 = zext i8 %2 to i64, !dbg !3247
  switch i64 %_4, label %bb2 [
    i64 0, label %bb3
    i64 1, label %bb5
    i64 2, label %bb1
  ], !dbg !3268

bb2:                                              ; preds = %start
  unreachable, !dbg !3247

bb3:                                              ; preds = %start
; call std::sys::unix::thread_local_dtor::register_dtor
  call void @_ZN3std3sys4unix17thread_local_dtor13register_dtor17h94342f8945cd5377E(ptr %self, ptr @_ZN3std6thread5local4fast13destroy_value17h7268d364c4910bfcE), !dbg !3269
  %self4 = getelementptr inbounds %"std::thread::local::fast::Key<core::cell::Cell<(u64, u64)>>", ptr %self, i32 0, i32 1, !dbg !3270
  store ptr %self4, ptr %self.dbg.spill5, align 8, !dbg !3270
  call void @llvm.dbg.declare(metadata ptr %self.dbg.spill5, metadata !3271, metadata !DIExpression()), !dbg !3279
; call core::cell::Cell<T>::replace
  %old = call i8 @"_ZN4core4cell13Cell$LT$T$GT$7replace17h83e7cc45e2485400E"(ptr align 1 %self4, i8 1), !dbg !3281, !range !3267
  store i8 %old, ptr %old.dbg.spill, align 1, !dbg !3281
  call void @llvm.dbg.declare(metadata ptr %old.dbg.spill, metadata !3277, metadata !DIExpression()), !dbg !3282
  store i8 1, ptr %0, align 1, !dbg !3283
  br label %bb6, !dbg !3283

bb5:                                              ; preds = %start
  store i8 1, ptr %0, align 1, !dbg !3284
  br label %bb6, !dbg !3284

bb1:                                              ; preds = %start
  store i8 0, ptr %0, align 1, !dbg !3285
  br label %bb6, !dbg !3285

bb6:                                              ; preds = %bb3, %bb5, %bb1
  %3 = load i8, ptr %0, align 1, !dbg !3286, !range !1772, !noundef !28
  %4 = trunc i8 %3 to i1, !dbg !3286
  ret i1 %4, !dbg !3286
}

; std::thread::local::fast::Key<T>::get
; Function Attrs: nonlazybind uwtable
define internal align 8 ptr @"_ZN3std6thread5local4fast12Key$LT$T$GT$3get17hdc3a55ca2e028017E"(ptr align 8 %self, ptr align 8 %init) unnamed_addr #0 personality ptr @rust_eh_personality !dbg !3287 {
start:
  %val.dbg.spill = alloca ptr, align 8
  %0 = alloca { ptr, i32 }, align 8
  %init.dbg.spill = alloca ptr, align 8
  %self.dbg.spill = alloca ptr, align 8
  %_10 = alloca i8, align 1
  %_3 = alloca ptr, align 8
  %1 = alloca ptr, align 8
  store ptr %self, ptr %self.dbg.spill, align 8
  call void @llvm.dbg.declare(metadata ptr %self.dbg.spill, metadata !3289, metadata !DIExpression()), !dbg !3293
  store ptr %init, ptr %init.dbg.spill, align 8
  call void @llvm.dbg.declare(metadata ptr %init.dbg.spill, metadata !3290, metadata !DIExpression()), !dbg !3294
  store i8 1, ptr %_10, align 1, !dbg !3295
; invoke std::thread::local::lazy::LazyKeyInner<T>::get
  %2 = invoke align 8 ptr @"_ZN3std6thread5local4lazy21LazyKeyInner$LT$T$GT$3get17h632713852b1ca2e6E"(ptr align 8 %self)
          to label %bb1 unwind label %cleanup, !dbg !3295

bb11:                                             ; preds = %cleanup
  %3 = load i8, ptr %_10, align 1, !dbg !3296, !range !1772, !noundef !28
  %4 = trunc i8 %3 to i1, !dbg !3296
  br i1 %4, label %bb10, label %bb8, !dbg !3296

cleanup:                                          ; preds = %bb2, %start
  %5 = landingpad { ptr, i32 }
          cleanup
  %6 = extractvalue { ptr, i32 } %5, 0
  %7 = extractvalue { ptr, i32 } %5, 1
  %8 = getelementptr inbounds { ptr, i32 }, ptr %0, i32 0, i32 0
  store ptr %6, ptr %8, align 8
  %9 = getelementptr inbounds { ptr, i32 }, ptr %0, i32 0, i32 1
  store i32 %7, ptr %9, align 8
  br label %bb11

bb1:                                              ; preds = %start
  store ptr %2, ptr %_3, align 8, !dbg !3295
  %10 = load ptr, ptr %_3, align 8, !dbg !3295, !noundef !28
  %11 = ptrtoint ptr %10 to i64, !dbg !3295
  %12 = icmp eq i64 %11, 0, !dbg !3295
  %_5 = select i1 %12, i64 0, i64 1, !dbg !3295
  %13 = icmp eq i64 %_5, 0, !dbg !3297
  br i1 %13, label %bb2, label %bb4, !dbg !3297

bb2:                                              ; preds = %bb1
  store i8 0, ptr %_10, align 1, !dbg !3298
; invoke std::thread::local::fast::Key<T>::try_initialize
  %14 = invoke align 8 ptr @"_ZN3std6thread5local4fast12Key$LT$T$GT$14try_initialize17h54c792e425df0a44E"(ptr align 8 %self, ptr align 8 %init)
          to label %bb5 unwind label %cleanup, !dbg !3299

bb4:                                              ; preds = %bb1
  %val = load ptr, ptr %_3, align 8, !dbg !3300, !nonnull !28, !align !1389, !noundef !28
  store ptr %val, ptr %val.dbg.spill, align 8, !dbg !3300
  call void @llvm.dbg.declare(metadata ptr %val.dbg.spill, metadata !3291, metadata !DIExpression()), !dbg !3301
  store ptr %val, ptr %1, align 8, !dbg !3302
  br label %bb6, !dbg !3303

bb3:                                              ; No predecessors!
  unreachable, !dbg !3295

bb6:                                              ; preds = %bb5, %bb4
  %15 = load i8, ptr %_10, align 1, !dbg !3296, !range !1772, !noundef !28
  %16 = trunc i8 %15 to i1, !dbg !3296
  br i1 %16, label %bb9, label %bb7, !dbg !3296

bb5:                                              ; preds = %bb2
  store ptr %14, ptr %1, align 8, !dbg !3299
  br label %bb6, !dbg !3304

bb8:                                              ; preds = %bb10, %bb11
  %17 = load ptr, ptr %0, align 8, !dbg !3305, !noundef !28
  %18 = getelementptr inbounds { ptr, i32 }, ptr %0, i32 0, i32 1, !dbg !3305
  %19 = load i32, ptr %18, align 8, !dbg !3305, !noundef !28
  %20 = insertvalue { ptr, i32 } undef, ptr %17, 0, !dbg !3305
  %21 = insertvalue { ptr, i32 } %20, i32 %19, 1, !dbg !3305
  resume { ptr, i32 } %21, !dbg !3305

bb10:                                             ; preds = %bb11
  br label %bb8, !dbg !3296

bb7:                                              ; preds = %bb9, %bb6
  %22 = load ptr, ptr %1, align 8, !dbg !3306, !align !1389, !noundef !28
  ret ptr %22, !dbg !3306

bb9:                                              ; preds = %bb6
  br label %bb7, !dbg !3296
}

; std::thread::local::fast::destroy_value
; Function Attrs: nonlazybind uwtable
define internal void @_ZN3std6thread5local4fast13destroy_value17h7268d364c4910bfcE(ptr %ptr) unnamed_addr #0 personality ptr @rust_eh_personality !dbg !3307 {
start:
  %0 = alloca ptr, align 8
  %1 = alloca ptr, align 8
  %f.dbg.spill = alloca ptr, align 8
  %x.dbg.spill2 = alloca ptr, align 8
  %x.dbg.spill = alloca ptr, align 8
  %2 = alloca { ptr, i32 }, align 8
  %ptr.dbg.spill = alloca ptr, align 8
  %_26 = alloca %"core::fmt::Arguments<'_>", align 8
  %_23 = alloca { ptr, ptr }, align 8
  %_22 = alloca [1 x { ptr, ptr }], align 8
  %_15 = alloca %"core::fmt::Arguments<'_>", align 8
  %_12 = alloca ptr, align 8
  %out = alloca %"std::sys::unix::stdio::Stderr", align 1
  %_9 = alloca i8, align 1
  %_6 = alloca ptr, align 8
  %_5 = alloca ptr, align 8
  %_4 = alloca { ptr, ptr }, align 8
  %ptr1 = alloca ptr, align 8
  store ptr %ptr, ptr %ptr.dbg.spill, align 8
  call void @llvm.dbg.declare(metadata ptr %ptr.dbg.spill, metadata !3311, metadata !DIExpression()), !dbg !3317
  call void @llvm.dbg.declare(metadata ptr %ptr1, metadata !3312, metadata !DIExpression()), !dbg !3318
  call void @llvm.dbg.declare(metadata ptr %out, metadata !3314, metadata !DIExpression()), !dbg !3319
  store ptr %ptr, ptr %ptr1, align 8, !dbg !3320
  store ptr %ptr1, ptr %_6, align 8, !dbg !3321
  %3 = load ptr, ptr %_6, align 8, !dbg !3322, !nonnull !28, !align !1389, !noundef !28
  store ptr %3, ptr %_5, align 8, !dbg !3322
  %4 = load ptr, ptr %_5, align 8, !dbg !3323, !nonnull !28, !align !1389, !noundef !28
; invoke std::panic::catch_unwind
  %5 = invoke { ptr, ptr } @_ZN3std5panic12catch_unwind17h941354c139373a9dE(ptr align 8 %4)
          to label %bb1 unwind label %cleanup, !dbg !3323

bb12:                                             ; preds = %cleanup
; call core::panicking::panic_cannot_unwind
  call void @_ZN4core9panicking19panic_cannot_unwind17h42344709dec62f2eE() #23, !dbg !3324
  unreachable, !dbg !3324

cleanup:                                          ; preds = %bb9, %bb7, %bb6, %bb14, %bb4, %bb2, %bb10, %start
  %6 = landingpad { ptr, i32 }
          cleanup
  %7 = extractvalue { ptr, i32 } %6, 0
  %8 = extractvalue { ptr, i32 } %6, 1
  %9 = getelementptr inbounds { ptr, i32 }, ptr %2, i32 0, i32 0
  store ptr %7, ptr %9, align 8
  %10 = getelementptr inbounds { ptr, i32 }, ptr %2, i32 0, i32 1
  store i32 %8, ptr %10, align 8
  br label %bb12

bb1:                                              ; preds = %start
  store { ptr, ptr } %5, ptr %_4, align 8, !dbg !3323
  %11 = load ptr, ptr %_4, align 8, !dbg !3325, !noundef !28
  %12 = ptrtoint ptr %11 to i64, !dbg !3325
  %13 = icmp eq i64 %12, 0, !dbg !3325
  %_8 = select i1 %13, i64 0, i64 1, !dbg !3325
  %14 = icmp eq i64 %_8, 1, !dbg !3325
  br i1 %14, label %bb2, label %bb10, !dbg !3325

bb2:                                              ; preds = %bb1
; invoke std::sys::unix::stdio::panic_output
  %15 = invoke zeroext i1 @_ZN3std3sys4unix5stdio12panic_output17h10b27a13c39e27f7E()
          to label %bb3 unwind label %cleanup, !dbg !3319

bb10:                                             ; preds = %bb1
; invoke core::ptr::drop_in_place<core::result::Result<(),alloc::boxed::Box<dyn core::any::Any+core::marker::Send>>>
  invoke void @"_ZN4core3ptr130drop_in_place$LT$core..result..Result$LT$$LP$$RP$$C$alloc..boxed..Box$LT$dyn$u20$core..any..Any$u2b$core..marker..Send$GT$$GT$$GT$17h5afcafd8b9ac1925E"(ptr %_4)
          to label %bb11 unwind label %cleanup, !dbg !3326

bb11:                                             ; preds = %bb10
  ret void, !dbg !3327

bb3:                                              ; preds = %bb2
  %16 = zext i1 %15 to i8, !dbg !3319
  store i8 %16, ptr %_9, align 1, !dbg !3319
  %17 = load i8, ptr %_9, align 1, !dbg !3319, !range !1772, !noundef !28
  %18 = trunc i8 %17 to i1, !dbg !3319
  %_10 = zext i1 %18 to i64, !dbg !3319
  %19 = icmp eq i64 %_10, 1, !dbg !3319
  br i1 %19, label %bb4, label %bb9, !dbg !3319

bb4:                                              ; preds = %bb3
; invoke core::fmt::Arguments::new_v1
  invoke void @_ZN4core3fmt9Arguments6new_v117h7a924f6801b34f19E(ptr sret(%"core::fmt::Arguments<'_>") %_26, ptr align 8 @alloc30, i64 1, ptr align 8 @alloc122, i64 0)
          to label %bb5 unwind label %cleanup, !dbg !3319

bb9:                                              ; preds = %bb8, %bb3
; invoke std::sys::unix::abort_internal
  invoke void @_ZN3std3sys4unix14abort_internal17h7f37f07e4ed20c97E() #21
          to label %unreachable unwind label %cleanup, !dbg !3328

bb5:                                              ; preds = %bb4
  store ptr %_26, ptr %x.dbg.spill, align 8, !dbg !3319
  call void @llvm.dbg.declare(metadata ptr %x.dbg.spill, metadata !3329, metadata !DIExpression()), !dbg !3337
  store ptr %_26, ptr %x.dbg.spill2, align 8, !dbg !3339
  call void @llvm.dbg.declare(metadata ptr %x.dbg.spill2, metadata !3340, metadata !DIExpression()), !dbg !3349
  store ptr @"_ZN59_$LT$core..fmt..Arguments$u20$as$u20$core..fmt..Display$GT$3fmt17he38941b7d204d60dE", ptr %f.dbg.spill, align 8, !dbg !3351
  call void @llvm.dbg.declare(metadata ptr %f.dbg.spill, metadata !3348, metadata !DIExpression()), !dbg !3352
  store ptr @"_ZN59_$LT$core..fmt..Arguments$u20$as$u20$core..fmt..Display$GT$3fmt17he38941b7d204d60dE", ptr %1, align 8, !dbg !3353
  %_39 = load ptr, ptr %1, align 8, !dbg !3353, !nonnull !28, !noundef !28
  br label %bb13, !dbg !3353

bb13:                                             ; preds = %bb5
  store ptr %_26, ptr %0, align 8, !dbg !3354
  %_41 = load ptr, ptr %0, align 8, !dbg !3354, !nonnull !28, !align !1561, !noundef !28
  br label %bb14, !dbg !3354

bb14:                                             ; preds = %bb13
  store ptr %_41, ptr %_23, align 8, !dbg !3355
  %20 = getelementptr inbounds { ptr, ptr }, ptr %_23, i32 0, i32 1, !dbg !3355
  store ptr %_39, ptr %20, align 8, !dbg !3355
  %21 = getelementptr inbounds { ptr, ptr }, ptr %_23, i32 0, i32 0, !dbg !3319
  %22 = load ptr, ptr %21, align 8, !dbg !3319, !nonnull !28, !align !1561, !noundef !28
  %23 = getelementptr inbounds { ptr, ptr }, ptr %_23, i32 0, i32 1, !dbg !3319
  %24 = load ptr, ptr %23, align 8, !dbg !3319, !nonnull !28, !noundef !28
  %25 = getelementptr inbounds [1 x { ptr, ptr }], ptr %_22, i64 0, i64 0, !dbg !3319
  %26 = getelementptr inbounds { ptr, ptr }, ptr %25, i32 0, i32 0, !dbg !3319
  store ptr %22, ptr %26, align 8, !dbg !3319
  %27 = getelementptr inbounds { ptr, ptr }, ptr %25, i32 0, i32 1, !dbg !3319
  store ptr %24, ptr %27, align 8, !dbg !3319
; invoke core::fmt::Arguments::new_v1
  invoke void @_ZN4core3fmt9Arguments6new_v117h7a924f6801b34f19E(ptr sret(%"core::fmt::Arguments<'_>") %_15, ptr align 8 @alloc100, i64 2, ptr align 8 %_22, i64 1)
          to label %bb6 unwind label %cleanup, !dbg !3319

bb6:                                              ; preds = %bb14
; invoke std::io::Write::write_fmt
  %28 = invoke ptr @_ZN3std2io5Write9write_fmt17h01a331f6b17c0746E(ptr align 1 %out, ptr %_15)
          to label %bb7 unwind label %cleanup, !dbg !3319

bb7:                                              ; preds = %bb6
  store ptr %28, ptr %_12, align 8, !dbg !3319
; invoke core::ptr::drop_in_place<core::result::Result<(),std::io::error::Error>>
  invoke void @"_ZN4core3ptr81drop_in_place$LT$core..result..Result$LT$$LP$$RP$$C$std..io..error..Error$GT$$GT$17ha252e82ab6166341E"(ptr %_12)
          to label %bb8 unwind label %cleanup, !dbg !3319

bb8:                                              ; preds = %bb7
  br label %bb9, !dbg !3328

unreachable:                                      ; preds = %bb9
  unreachable
}

; std::thread::local::fast::destroy_value::{{closure}}
; Function Attrs: inlinehint nonlazybind uwtable
define internal void @"_ZN3std6thread5local4fast13destroy_value28_$u7b$$u7b$closure$u7d$$u7d$17hcd6bb08f42628e55E"(ptr align 8 %_1) unnamed_addr #1 personality ptr @rust_eh_personality !dbg !3356 {
start:
  %old.dbg.spill = alloca i8, align 1
  %0 = alloca { ptr, i32 }, align 8
  %self.dbg.spill = alloca ptr, align 8
  %_1.dbg.spill = alloca ptr, align 8
  %_11 = alloca i8, align 1
  %_x = alloca %"core::option::Option<core::cell::Cell<(u64, u64)>>", align 8
  %value = alloca %"core::option::Option<core::cell::Cell<(u64, u64)>>", align 8
  store ptr %_1, ptr %_1.dbg.spill, align 8
  call void @llvm.dbg.declare(metadata ptr %_1.dbg.spill, metadata !3361, metadata !DIExpression(DW_OP_deref, DW_OP_deref)), !dbg !3364
  call void @llvm.dbg.declare(metadata ptr %value, metadata !3362, metadata !DIExpression()), !dbg !3365
  call void @llvm.dbg.declare(metadata ptr %_x, metadata !3366, metadata !DIExpression()), !dbg !3371
  %_7 = load ptr, ptr %_1, align 8, !dbg !3373, !nonnull !28, !align !1389, !noundef !28
  %_8 = load ptr, ptr %_7, align 8, !dbg !3373, !noundef !28
  store i8 1, ptr %_11, align 1, !dbg !3373
; call std::thread::local::lazy::LazyKeyInner<T>::take
  call void @"_ZN3std6thread5local4lazy21LazyKeyInner$LT$T$GT$4take17he2b5bd06259b828dE"(ptr sret(%"core::option::Option<core::cell::Cell<(u64, u64)>>") %value, ptr align 8 %_8), !dbg !3373
  %_9 = load ptr, ptr %_1, align 8, !dbg !3374, !nonnull !28, !align !1389, !noundef !28
  %_10 = load ptr, ptr %_9, align 8, !dbg !3374, !noundef !28
  %self = getelementptr inbounds %"std::thread::local::fast::Key<core::cell::Cell<(u64, u64)>>", ptr %_10, i32 0, i32 1, !dbg !3374
  store ptr %self, ptr %self.dbg.spill, align 8, !dbg !3374
  call void @llvm.dbg.declare(metadata ptr %self.dbg.spill, metadata !3375, metadata !DIExpression()), !dbg !3381
; invoke core::cell::Cell<T>::replace
  %old = invoke i8 @"_ZN4core4cell13Cell$LT$T$GT$7replace17h83e7cc45e2485400E"(ptr align 1 %self, i8 2)
          to label %bb5 unwind label %cleanup, !dbg !3383, !range !3267

bb4:                                              ; preds = %cleanup
  %1 = load i8, ptr %_11, align 1, !dbg !3384, !range !1772, !noundef !28
  %2 = trunc i8 %1 to i1, !dbg !3384
  br i1 %2, label %bb3, label %bb2, !dbg !3384

cleanup:                                          ; preds = %start
  %3 = landingpad { ptr, i32 }
          cleanup
  %4 = extractvalue { ptr, i32 } %3, 0
  %5 = extractvalue { ptr, i32 } %3, 1
  %6 = getelementptr inbounds { ptr, i32 }, ptr %0, i32 0, i32 0
  store ptr %4, ptr %6, align 8
  %7 = getelementptr inbounds { ptr, i32 }, ptr %0, i32 0, i32 1
  store i32 %5, ptr %7, align 8
  br label %bb4

bb5:                                              ; preds = %start
  store i8 %old, ptr %old.dbg.spill, align 1, !dbg !3383
  call void @llvm.dbg.declare(metadata ptr %old.dbg.spill, metadata !3379, metadata !DIExpression()), !dbg !3385
  store i8 0, ptr %_11, align 1, !dbg !3386
  call void @llvm.memcpy.p0.p0.i64(ptr align 8 %_x, ptr align 8 %value, i64 24, i1 false), !dbg !3386
  br label %bb6, !dbg !3387

bb6:                                              ; preds = %bb5
  ret void, !dbg !3388

bb2:                                              ; preds = %bb3, %bb4
  %8 = load ptr, ptr %0, align 8, !dbg !3389, !noundef !28
  %9 = getelementptr inbounds { ptr, i32 }, ptr %0, i32 0, i32 1, !dbg !3389
  %10 = load i32, ptr %9, align 8, !dbg !3389, !noundef !28
  %11 = insertvalue { ptr, i32 } undef, ptr %8, 0, !dbg !3389
  %12 = insertvalue { ptr, i32 } %11, i32 %10, 1, !dbg !3389
  resume { ptr, i32 } %12, !dbg !3389

bb3:                                              ; preds = %bb4
  br label %bb2, !dbg !3384
}

; std::thread::local::lazy::LazyKeyInner<T>::initialize
; Function Attrs: nonlazybind uwtable
define internal align 8 ptr @"_ZN3std6thread5local4lazy21LazyKeyInner$LT$T$GT$10initialize17h0e71b98dfe727673E"(ptr align 8 %self, ptr align 8 %init) unnamed_addr #0 personality ptr @rust_eh_personality !dbg !3390 {
start:
  %x.dbg.spill = alloca ptr, align 8
  %0 = alloca { ptr, i32 }, align 8
  %ptr.dbg.spill = alloca ptr, align 8
  %self.dbg.spill1 = alloca ptr, align 8
  %value.dbg.spill = alloca { i64, i64 }, align 8
  %init.dbg.spill = alloca ptr, align 8
  %self.dbg.spill = alloca ptr, align 8
  %_11 = alloca %"core::option::Option<core::cell::Cell<(u64, u64)>>", align 8
  %_8 = alloca %"core::option::Option<core::cell::Cell<(u64, u64)>>", align 8
  store ptr %self, ptr %self.dbg.spill, align 8
  call void @llvm.dbg.declare(metadata ptr %self.dbg.spill, metadata !3395, metadata !DIExpression()), !dbg !3404
  store ptr %init, ptr %init.dbg.spill, align 8
  call void @llvm.dbg.declare(metadata ptr %init.dbg.spill, metadata !3396, metadata !DIExpression()), !dbg !3405
; call std::collections::hash::map::RandomState::new::KEYS::__getit::{{closure}}
  %1 = call { i64, i64 } @"_ZN3std11collections4hash3map11RandomState3new4KEYS7__getit28_$u7b$$u7b$closure$u7d$$u7d$17ha6416818a7145e9aE"(ptr align 8 %init), !dbg !3406
  %value.0 = extractvalue { i64, i64 } %1, 0, !dbg !3406
  %value.1 = extractvalue { i64, i64 } %1, 1, !dbg !3406
  %2 = getelementptr inbounds { i64, i64 }, ptr %value.dbg.spill, i32 0, i32 0, !dbg !3406
  store i64 %value.0, ptr %2, align 8, !dbg !3406
  %3 = getelementptr inbounds { i64, i64 }, ptr %value.dbg.spill, i32 0, i32 1, !dbg !3406
  store i64 %value.1, ptr %3, align 8, !dbg !3406
  call void @llvm.dbg.declare(metadata ptr %value.dbg.spill, metadata !3397, metadata !DIExpression()), !dbg !3407
  store ptr %self, ptr %self.dbg.spill1, align 8, !dbg !3408
  call void @llvm.dbg.declare(metadata ptr %self.dbg.spill1, metadata !3409, metadata !DIExpression()), !dbg !3415
  store ptr %self, ptr %ptr.dbg.spill, align 8, !dbg !3417
  call void @llvm.dbg.declare(metadata ptr %ptr.dbg.spill, metadata !3399, metadata !DIExpression()), !dbg !3418
  %4 = getelementptr inbounds %"core::option::Option<core::cell::Cell<(u64, u64)>>::Some", ptr %_11, i32 0, i32 1, !dbg !3419
  %5 = getelementptr inbounds { i64, i64 }, ptr %4, i32 0, i32 0, !dbg !3419
  store i64 %value.0, ptr %5, align 8, !dbg !3419
  %6 = getelementptr inbounds { i64, i64 }, ptr %4, i32 0, i32 1, !dbg !3419
  store i64 %value.1, ptr %6, align 8, !dbg !3419
  store i64 1, ptr %_11, align 8, !dbg !3419
; invoke core::mem::replace
  invoke void @_ZN4core3mem7replace17h3d5291bf21ea2076E(ptr sret(%"core::option::Option<core::cell::Cell<(u64, u64)>>") %_8, ptr align 8 %self, ptr %_11)
          to label %bb2 unwind label %cleanup, !dbg !3420

bb9:                                              ; preds = %cleanup
  br i1 false, label %bb8, label %bb7, !dbg !3421

cleanup:                                          ; preds = %bb4, %start
  %7 = landingpad { ptr, i32 }
          cleanup
  %8 = extractvalue { ptr, i32 } %7, 0
  %9 = extractvalue { ptr, i32 } %7, 1
  %10 = getelementptr inbounds { ptr, i32 }, ptr %0, i32 0, i32 0
  store ptr %8, ptr %10, align 8
  %11 = getelementptr inbounds { ptr, i32 }, ptr %0, i32 0, i32 1
  store i32 %9, ptr %11, align 8
  br label %bb9

bb2:                                              ; preds = %start
  br label %bb3, !dbg !3422

bb3:                                              ; preds = %bb2
  %_13 = load i64, ptr %self, align 8, !dbg !3423, !range !1419, !noundef !28
  %12 = icmp eq i64 %_13, 0, !dbg !3424
  br i1 %12, label %bb4, label %bb6, !dbg !3424

bb4:                                              ; preds = %bb3
; invoke core::hint::unreachable_unchecked
  invoke void @_ZN4core4hint21unreachable_unchecked17h6a8e14e74075a8e5E() #21
          to label %unreachable unwind label %cleanup, !dbg !3425

bb6:                                              ; preds = %bb3
  %x = getelementptr inbounds %"core::option::Option<core::cell::Cell<(u64, u64)>>::Some", ptr %self, i32 0, i32 1, !dbg !3426
  store ptr %x, ptr %x.dbg.spill, align 8, !dbg !3426
  call void @llvm.dbg.declare(metadata ptr %x.dbg.spill, metadata !3402, metadata !DIExpression()), !dbg !3427
  ret ptr %x, !dbg !3428

bb5:                                              ; No predecessors!
  unreachable, !dbg !3423

unreachable:                                      ; preds = %bb4
  unreachable

bb7:                                              ; preds = %bb8, %bb9
  %13 = load ptr, ptr %0, align 8, !dbg !3429, !noundef !28
  %14 = getelementptr inbounds { ptr, i32 }, ptr %0, i32 0, i32 1, !dbg !3429
  %15 = load i32, ptr %14, align 8, !dbg !3429, !noundef !28
  %16 = insertvalue { ptr, i32 } undef, ptr %13, 0, !dbg !3429
  %17 = insertvalue { ptr, i32 } %16, i32 %15, 1, !dbg !3429
  resume { ptr, i32 } %17, !dbg !3429

bb8:                                              ; preds = %bb9
  br label %bb7, !dbg !3421
}

; std::thread::local::lazy::LazyKeyInner<T>::get
; Function Attrs: nonlazybind uwtable
define internal align 8 ptr @"_ZN3std6thread5local4lazy21LazyKeyInner$LT$T$GT$3get17h632713852b1ca2e6E"(ptr align 8 %self) unnamed_addr #0 !dbg !3430 {
start:
  %x.dbg.spill = alloca ptr, align 8
  %self.dbg.spill2 = alloca ptr, align 8
  %self.dbg.spill1 = alloca ptr, align 8
  %self.dbg.spill = alloca ptr, align 8
  %0 = alloca ptr, align 8
  store ptr %self, ptr %self.dbg.spill, align 8
  call void @llvm.dbg.declare(metadata ptr %self.dbg.spill, metadata !3434, metadata !DIExpression()), !dbg !3435
  store ptr %self, ptr %self.dbg.spill1, align 8, !dbg !3436
  call void @llvm.dbg.declare(metadata ptr %self.dbg.spill1, metadata !3437, metadata !DIExpression()), !dbg !3440
  store ptr %self, ptr %self.dbg.spill2, align 8, !dbg !3442
  call void @llvm.dbg.declare(metadata ptr %self.dbg.spill2, metadata !3443, metadata !DIExpression()), !dbg !3451
  %_7 = load i64, ptr %self, align 8, !dbg !3453, !range !1419, !noundef !28
  %1 = icmp eq i64 %_7, 0, !dbg !3454
  br i1 %1, label %bb2, label %bb4, !dbg !3454

bb2:                                              ; preds = %start
  store ptr null, ptr %0, align 8, !dbg !3455
  br label %bb1, !dbg !3455

bb4:                                              ; preds = %start
  %x = getelementptr inbounds %"core::option::Option<core::cell::Cell<(u64, u64)>>::Some", ptr %self, i32 0, i32 1, !dbg !3456
  store ptr %x, ptr %x.dbg.spill, align 8, !dbg !3456
  call void @llvm.dbg.declare(metadata ptr %x.dbg.spill, metadata !3449, metadata !DIExpression()), !dbg !3457
  store ptr %x, ptr %0, align 8, !dbg !3458
  br label %bb1, !dbg !3459

bb3:                                              ; No predecessors!
  unreachable, !dbg !3453

bb1:                                              ; preds = %bb2, %bb4
  %2 = load ptr, ptr %0, align 8, !dbg !3460, !align !1389, !noundef !28
  ret ptr %2, !dbg !3460
}

; std::thread::local::lazy::LazyKeyInner<T>::take
; Function Attrs: nonlazybind uwtable
define internal void @"_ZN3std6thread5local4lazy21LazyKeyInner$LT$T$GT$4take17he2b5bd06259b828dE"(ptr sret(%"core::option::Option<core::cell::Cell<(u64, u64)>>") %0, ptr align 8 %self) unnamed_addr #0 !dbg !3461 {
start:
  %self.dbg.spill2 = alloca ptr, align 8
  %self.dbg.spill1 = alloca ptr, align 8
  %self.dbg.spill = alloca ptr, align 8
  %_8 = alloca %"core::option::Option<core::cell::Cell<(u64, u64)>>", align 8
  store ptr %self, ptr %self.dbg.spill, align 8
  call void @llvm.dbg.declare(metadata ptr %self.dbg.spill, metadata !3466, metadata !DIExpression()), !dbg !3467
  store ptr %self, ptr %self.dbg.spill1, align 8, !dbg !3468
  call void @llvm.dbg.declare(metadata ptr %self.dbg.spill1, metadata !3469, metadata !DIExpression()), !dbg !3472
  store ptr %self, ptr %self.dbg.spill2, align 8, !dbg !3474
  call void @llvm.dbg.declare(metadata ptr %self.dbg.spill2, metadata !3475, metadata !DIExpression()), !dbg !3478
  store i64 0, ptr %_8, align 8, !dbg !3480
; call core::mem::replace
  call void @_ZN4core3mem7replace17h3d5291bf21ea2076E(ptr sret(%"core::option::Option<core::cell::Cell<(u64, u64)>>") %0, ptr align 8 %self, ptr %_8), !dbg !3481
  ret void, !dbg !3482
}

; std::thread::spawn
; Function Attrs: nonlazybind uwtable
define internal void @_ZN3std6thread5spawn17hc6f148c1a1888888E(ptr sret(%"std::thread::JoinHandle<()>") %0, ptr %f) unnamed_addr #0 personality ptr @rust_eh_personality !dbg !3483 {
start:
  %1 = alloca { ptr, i32 }, align 8
  %_7 = alloca i8, align 1
  %_4 = alloca %"[closure@src/main.rs:18:19: 18:26]", align 8
  %_3 = alloca %"std::thread::Builder", align 8
  %_2 = alloca %"core::result::Result<std::thread::JoinHandle<()>, std::io::error::Error>", align 8
  call void @llvm.dbg.declare(metadata ptr %f, metadata !3487, metadata !DIExpression()), !dbg !3488
  store i8 1, ptr %_7, align 1, !dbg !3489
; invoke std::thread::Builder::new
  invoke void @_ZN3std6thread7Builder3new17he856e7fb4f75260bE(ptr sret(%"std::thread::Builder") %_3)
          to label %bb1 unwind label %cleanup, !dbg !3489

bb6:                                              ; preds = %cleanup
  %2 = load i8, ptr %_7, align 1, !dbg !3490, !range !1772, !noundef !28
  %3 = trunc i8 %2 to i1, !dbg !3490
  br i1 %3, label %bb5, label %bb4, !dbg !3490

cleanup:                                          ; preds = %bb2, %bb1, %start
  %4 = landingpad { ptr, i32 }
          cleanup
  %5 = extractvalue { ptr, i32 } %4, 0
  %6 = extractvalue { ptr, i32 } %4, 1
  %7 = getelementptr inbounds { ptr, i32 }, ptr %1, i32 0, i32 0
  store ptr %5, ptr %7, align 8
  %8 = getelementptr inbounds { ptr, i32 }, ptr %1, i32 0, i32 1
  store i32 %6, ptr %8, align 8
  br label %bb6

bb1:                                              ; preds = %start
  store i8 0, ptr %_7, align 1, !dbg !3491
  call void @llvm.memcpy.p0.p0.i64(ptr align 8 %_4, ptr align 8 %f, i64 56, i1 false), !dbg !3491
; invoke std::thread::Builder::spawn
  invoke void @_ZN3std6thread7Builder5spawn17h94a667075ad2a831E(ptr sret(%"core::result::Result<std::thread::JoinHandle<()>, std::io::error::Error>") %_2, ptr %_3, ptr %_4)
          to label %bb2 unwind label %cleanup, !dbg !3489

bb2:                                              ; preds = %bb1
; invoke core::result::Result<T,E>::expect
  invoke void @"_ZN4core6result19Result$LT$T$C$E$GT$6expect17h57648908652bdd26E"(ptr sret(%"std::thread::JoinHandle<()>") %0, ptr %_2, ptr align 1 @alloc314, i64 22, ptr align 8 @alloc316)
          to label %bb3 unwind label %cleanup, !dbg !3489

bb3:                                              ; preds = %bb2
  ret void, !dbg !3492

bb4:                                              ; preds = %bb5, %bb6
  %9 = load ptr, ptr %1, align 8, !dbg !3493, !noundef !28
  %10 = getelementptr inbounds { ptr, i32 }, ptr %1, i32 0, i32 1, !dbg !3493
  %11 = load i32, ptr %10, align 8, !dbg !3493, !noundef !28
  %12 = insertvalue { ptr, i32 } undef, ptr %9, 0, !dbg !3493
  %13 = insertvalue { ptr, i32 } %12, i32 %11, 1, !dbg !3493
  resume { ptr, i32 } %13, !dbg !3493

bb5:                                              ; preds = %bb6
; invoke core::ptr::drop_in_place<demo::spawn_user_query::{{closure}}>
  invoke void @"_ZN4core3ptr72drop_in_place$LT$demo..spawn_user_query..$u7b$$u7b$closure$u7d$$u7d$$GT$17ha2c3e57abbe3518fE"(ptr %f) #22
          to label %bb4 unwind label %abort, !dbg !3490

abort:                                            ; preds = %bb5
  %14 = landingpad { ptr, i32 }
          cleanup, !dbg !3493
  %15 = extractvalue { ptr, i32 } %14, 0, !dbg !3493
  %16 = extractvalue { ptr, i32 } %14, 1, !dbg !3493
; call core::panicking::panic_cannot_unwind
  call void @_ZN4core9panicking19panic_cannot_unwind17h42344709dec62f2eE() #23, !dbg !3493
  unreachable, !dbg !3493
}

; std::thread::Builder::spawn_unchecked
; Function Attrs: nonlazybind uwtable
define internal void @_ZN3std6thread7Builder15spawn_unchecked17h49eb9332a94255f9E(ptr sret(%"core::result::Result<std::thread::JoinHandle<()>, std::io::error::Error>") %0, ptr %self, ptr %f) unnamed_addr #0 !dbg !3494 {
start:
  %t.dbg.spill = alloca ptr, align 8
  %e.dbg.spill4 = alloca ptr, align 8
  %residual.dbg.spill = alloca ptr, align 8
  %e.dbg.spill = alloca ptr, align 8
  %_18 = alloca ptr, align 8
  %_16 = alloca %"std::thread::JoinInner<'_, ()>", align 8
  %v = alloca %"std::thread::JoinInner<'_, ()>", align 8
  %val = alloca %"std::thread::JoinInner<'_, ()>", align 8
  %residual = alloca ptr, align 8
  %_9 = alloca ptr, align 8
  %_8 = alloca %"[closure@src/main.rs:18:19: 18:26]", align 8
  %_7 = alloca %"std::thread::Builder", align 8
  %self1 = alloca %"core::result::Result<std::thread::JoinInner<'_, ()>, std::io::error::Error>", align 8
  %_5 = alloca %"core::ops::control_flow::ControlFlow<core::result::Result<core::convert::Infallible, std::io::error::Error>, std::thread::JoinInner<'_, ()>>", align 8
  %_4 = alloca %"std::thread::JoinInner<'_, ()>", align 8
  %_3 = alloca %"std::thread::JoinHandle<()>", align 8
  call void @llvm.dbg.declare(metadata ptr %self, metadata !3517, metadata !DIExpression()), !dbg !3536
  call void @llvm.dbg.declare(metadata ptr %f, metadata !3518, metadata !DIExpression()), !dbg !3537
  call void @llvm.dbg.declare(metadata ptr %self1, metadata !3538, metadata !DIExpression()), !dbg !3578
  call void @llvm.dbg.declare(metadata ptr %residual, metadata !3580, metadata !DIExpression()), !dbg !3589
  call void @llvm.dbg.declare(metadata ptr %val, metadata !3534, metadata !DIExpression()), !dbg !3591
  call void @llvm.dbg.declare(metadata ptr %v, metadata !3574, metadata !DIExpression()), !dbg !3592
  call void @llvm.memcpy.p0.p0.i64(ptr align 8 %_7, ptr align 8 %self, i64 40, i1 false), !dbg !3593
  call void @llvm.memcpy.p0.p0.i64(ptr align 8 %_8, ptr align 8 %f, i64 56, i1 false), !dbg !3594
  store ptr null, ptr %_9, align 8, !dbg !3595
  %1 = load ptr, ptr %_9, align 8, !dbg !3593, !noundef !28
; call std::thread::Builder::spawn_unchecked_
  call void @_ZN3std6thread7Builder16spawn_unchecked_17h7c53e9d2b755eedbE(ptr sret(%"core::result::Result<std::thread::JoinInner<'_, ()>, std::io::error::Error>") %self1, ptr %_7, ptr %_8, ptr %1), !dbg !3593
  %2 = getelementptr inbounds %"core::result::Result<std::thread::JoinInner<'_, ()>, std::io::error::Error>", ptr %self1, i32 0, i32 1, !dbg !3596
  %3 = load ptr, ptr %2, align 8, !dbg !3596, !noundef !28
  %4 = ptrtoint ptr %3 to i64, !dbg !3596
  %5 = icmp eq i64 %4, 0, !dbg !3596
  %_14 = select i1 %5, i64 1, i64 0, !dbg !3596
  %6 = icmp eq i64 %_14, 0, !dbg !3597
  br i1 %6, label %bb9, label %bb7, !dbg !3597

bb9:                                              ; preds = %start
  call void @llvm.memcpy.p0.p0.i64(ptr align 8 %v, ptr align 8 %self1, i64 24, i1 false), !dbg !3598
  call void @llvm.memcpy.p0.p0.i64(ptr align 8 %_16, ptr align 8 %v, i64 24, i1 false), !dbg !3599
  call void @llvm.memcpy.p0.p0.i64(ptr align 8 %_5, ptr align 8 %_16, i64 24, i1 false), !dbg !3600
  br label %bb2, !dbg !3601

bb7:                                              ; preds = %start
  %e = load ptr, ptr %self1, align 8, !dbg !3602, !nonnull !28, !noundef !28
  store ptr %e, ptr %e.dbg.spill, align 8, !dbg !3602
  call void @llvm.dbg.declare(metadata ptr %e.dbg.spill, metadata !3576, metadata !DIExpression()), !dbg !3603
  store ptr %e, ptr %_18, align 8, !dbg !3604
  %7 = load ptr, ptr %_18, align 8, !dbg !3605, !nonnull !28, !noundef !28
  store ptr %7, ptr %_5, align 8, !dbg !3605
  %8 = getelementptr inbounds %"core::ops::control_flow::ControlFlow<core::result::Result<core::convert::Infallible, std::io::error::Error>, std::thread::JoinInner<'_, ()>>", ptr %_5, i32 0, i32 1, !dbg !3605
  store ptr null, ptr %8, align 8, !dbg !3605
  br label %bb2, !dbg !3606

bb8:                                              ; No predecessors!
  unreachable, !dbg !3596

bb2:                                              ; preds = %bb9, %bb7
  %9 = getelementptr inbounds %"core::ops::control_flow::ControlFlow<core::result::Result<core::convert::Infallible, std::io::error::Error>, std::thread::JoinInner<'_, ()>>", ptr %_5, i32 0, i32 1, !dbg !3579
  %10 = load ptr, ptr %9, align 8, !dbg !3579, !noundef !28
  %11 = ptrtoint ptr %10 to i64, !dbg !3579
  %12 = icmp eq i64 %11, 0, !dbg !3579
  %_10 = select i1 %12, i64 1, i64 0, !dbg !3579
  %13 = icmp eq i64 %_10, 0, !dbg !3579
  br i1 %13, label %bb3, label %bb5, !dbg !3579

bb3:                                              ; preds = %bb2
  call void @llvm.memcpy.p0.p0.i64(ptr align 8 %val, ptr align 8 %_5, i64 24, i1 false), !dbg !3579
  call void @llvm.memcpy.p0.p0.i64(ptr align 8 %_4, ptr align 8 %val, i64 24, i1 false), !dbg !3591
  call void @llvm.memcpy.p0.p0.i64(ptr align 8 %_3, ptr align 8 %_4, i64 24, i1 false), !dbg !3607
  call void @llvm.memcpy.p0.p0.i64(ptr align 8 %0, ptr align 8 %_3, i64 24, i1 false), !dbg !3608
  br label %bb6, !dbg !3609

bb5:                                              ; preds = %bb2
  %residual2 = load ptr, ptr %_5, align 8, !dbg !3610, !nonnull !28, !noundef !28
  store ptr %residual2, ptr %residual.dbg.spill, align 8, !dbg !3610
  call void @llvm.dbg.declare(metadata ptr %residual.dbg.spill, metadata !3519, metadata !DIExpression()), !dbg !3611
  store ptr %residual2, ptr %residual, align 8, !dbg !3611
  %e3 = load ptr, ptr %residual, align 8, !dbg !3612, !nonnull !28, !noundef !28
  store ptr %e3, ptr %e.dbg.spill4, align 8, !dbg !3612
  call void @llvm.dbg.declare(metadata ptr %e.dbg.spill4, metadata !3585, metadata !DIExpression()), !dbg !3613
  store ptr %e3, ptr %t.dbg.spill, align 8, !dbg !3614
  call void @llvm.dbg.declare(metadata ptr %t.dbg.spill, metadata !3615, metadata !DIExpression()), !dbg !3622
  store ptr %e3, ptr %0, align 8, !dbg !3624
  %14 = getelementptr inbounds %"core::result::Result<std::thread::JoinHandle<()>, std::io::error::Error>", ptr %0, i32 0, i32 1, !dbg !3624
  store ptr null, ptr %14, align 8, !dbg !3624
  br label %bb6, !dbg !3609

bb4:                                              ; No predecessors!
  unreachable, !dbg !3579

bb6:                                              ; preds = %bb3, %bb5
  ret void, !dbg !3625
}

; std::thread::Builder::spawn_unchecked_
; Function Attrs: nonlazybind uwtable
define internal void @_ZN3std6thread7Builder16spawn_unchecked_17h7c53e9d2b755eedbE(ptr sret(%"core::result::Result<std::thread::JoinInner<'_, ()>, std::io::error::Error>") %0, ptr %self, ptr %f, ptr %1) unnamed_addr #0 personality ptr @rust_eh_personality !dbg !3626 {
start:
  %val.dbg.spill = alloca i64, align 8
  %t.dbg.spill = alloca ptr, align 8
  %e.dbg.spill27 = alloca ptr, align 8
  %residual.dbg.spill = alloca ptr, align 8
  %v.dbg.spill = alloca i64, align 8
  %e.dbg.spill = alloca ptr, align 8
  %2 = alloca { ptr, ptr }, align 8
  %self.dbg.spill22 = alloca ptr, align 8
  %self.dbg.spill20 = alloca ptr, align 8
  %self.dbg.spill19 = alloca ptr, align 8
  %self.dbg.spill18 = alloca ptr, align 8
  %scope_data.dbg.spill = alloca ptr, align 8
  %self.dbg.spill17 = alloca ptr, align 8
  %self.dbg.spill15 = alloca ptr, align 8
  %self.dbg.spill14 = alloca ptr, align 8
  %self.dbg.spill13 = alloca ptr, align 8
  %x.dbg.spill11 = alloca ptr, align 8
  %self.dbg.spill10 = alloca ptr, align 8
  %self.dbg.spill5 = alloca ptr, align 8
  %self.dbg.spill = alloca ptr, align 8
  %3 = alloca { ptr, i32 }, align 8
  %x.dbg.spill = alloca i64, align 8
  %stack_size.dbg.spill = alloca { i64, i64 }, align 8
  %f.dbg.spill = alloca {}, align 1
  %_97 = alloca ptr, align 8
  %_72 = alloca %"core::option::Option<core::result::Result<(), alloc::boxed::Box<dyn core::any::Any + core::marker::Send>>>", align 8
  %_66 = alloca ptr, align 8
  %_60 = alloca i8, align 1
  %_59 = alloca i8, align 1
  %_58 = alloca i8, align 1
  %_57 = alloca i8, align 1
  %_56 = alloca i8, align 1
  %_55 = alloca i8, align 1
  %_54 = alloca i8, align 1
  %residual = alloca ptr, align 8
  %x = alloca %"[closure@std::thread::Builder::spawn_unchecked_<'_, '_, [closure@src/main.rs:18:19: 18:26], ()>::{closure#1}]", align 8
  %self3 = alloca %"core::result::Result<std::sys::unix::thread::Thread, std::io::error::Error>", align 8
  %_40 = alloca %"core::ops::control_flow::ControlFlow<core::result::Result<core::convert::Infallible, std::io::error::Error>, std::sys::unix::thread::Thread>", align 8
  %_38 = alloca %"std::thread::JoinInner<'_, ()>", align 8
  %main = alloca %"[closure@std::thread::Builder::spawn_unchecked_<'_, '_, [closure@src/main.rs:18:19: 18:26], ()>::{closure#1}]", align 8
  %_27 = alloca %"[closure@src/main.rs:18:19: 18:26]", align 8
  %f2 = alloca %"std::thread::Builder::spawn_unchecked_::MaybeDangling<[closure@src/main.rs:18:19: 18:26]>", align 8
  %_24 = alloca ptr, align 8
  %_23 = alloca ptr, align 8
  %_22 = alloca ptr, align 8
  %output_capture = alloca ptr, align 8
  %their_packet = alloca ptr, align 8
  %value = alloca %"core::option::Option<core::result::Result<(), alloc::boxed::Box<dyn core::any::Any + core::marker::Send>>>", align 8
  %_17 = alloca %"core::cell::UnsafeCell<core::option::Option<core::result::Result<(), alloc::boxed::Box<dyn core::any::Any + core::marker::Send>>>>", align 8
  %_15 = alloca %"std::thread::Packet<'_, ()>", align 8
  %my_packet = alloca ptr, align 8
  %their_thread = alloca ptr, align 8
  %_10 = alloca %"core::option::Option<alloc::string::String>", align 8
  %my_thread = alloca ptr, align 8
  %self1 = alloca { i64, i64 }, align 8
  %stack_size = alloca i64, align 8
  %name = alloca %"core::option::Option<alloc::string::String>", align 8
  %scope_data = alloca ptr, align 8
  store ptr %1, ptr %scope_data, align 8
  call void @llvm.dbg.declare(metadata ptr %self, metadata !3630, metadata !DIExpression()), !dbg !3659
  call void @llvm.dbg.declare(metadata ptr %f, metadata !3631, metadata !DIExpression()), !dbg !3660
  call void @llvm.dbg.declare(metadata ptr %scope_data, metadata !3632, metadata !DIExpression()), !dbg !3661
  call void @llvm.dbg.declare(metadata ptr %name, metadata !3633, metadata !DIExpression()), !dbg !3662
  call void @llvm.dbg.declare(metadata ptr %stack_size, metadata !3636, metadata !DIExpression()), !dbg !3663
  call void @llvm.dbg.declare(metadata ptr %self1, metadata !3664, metadata !DIExpression()), !dbg !3677
